(lp1
(dp2
S'rpr30 TOT_CORR_classes_min'
p3
F0.076593690669824466
sS'rpr30 TOT_CORR_spo'
p4
F0.078932827088414773
sS'rpr55 INTERACT_spo'
p5
F0.082630909721350426
sS'pr40 PMI_classes_min'
p6
F0.10638299717184034
sS'r70 w_join'
p7
F0.1038482273634339
sS'rpr20 PMI_pred_obj'
p8
F0.074519587307470603
sS'r10 INTERACT_classes_max'
p9
F0.1111111111111111
sS'r75 no_w'
p10
F0.10585996875926325
sS'rpr30 p_o'
p11
F0.073247161464297758
sS'r10 no_w'
p12
F0.10893160002709613
sS'pr20 INTERACT_classes_max'
p13
F0.11111111111111112
sS'r70 IC_obj'
p14
F0.10431525562544564
sS'pr40 IC_pred'
p15
F0.10134274417279478
sS'pr30 TOT_CORR_classes_min'
p16
F0.10368520338953029
sS'rpr55 IC_obj'
p17
F0.081318633964440307
sS'rpr75 TOT_CORR_spo'
p18
F0.08725506847072384
sS'pr85 PMI_classes_min'
p19
F0.10152284944413253
sS'rpr60 IC_obj'
p20
F0.082193615652586025
sS'r85 IC_obj'
p21
F0.10529202858668887
sS'r65 PMI_classes_max'
p22
F0.10362692829907269
sS'r85 PMI_classes_min'
p23
F0.10152284944413253
sS'pr75 p_o'
p24
F0.092686837464518126
sS'rpr20 no_w'
p25
F0.07822311918709976
sS'pr40 INTERACT_classes_min'
p26
F0.11111111111111112
sS'rpr90 w_ic_pmi'
p27
F0.076332968529698092
sS'r80 w_ic_pmi'
p28
F0.095429790202969433
sS'pr75 PMI_classes_min'
p29
F0.10256406821559212
sS'pr10 p_o'
p30
F0.10722047499133704
sS'r95 no_w'
p31
F0.10803393217812761
sS'rpr55 w_ic_pmi'
p32
F0.07410043926379048
sS'pr70 w_comb'
p33
F0.10095404238638311
sS'pr70 w_join'
p34
F0.1038482273634339
sS'pr55 INTERACT_spo'
p35
F0.10504959830079173
sS'rpr70 INTERACT_spo'
p36
F0.08597369838694488
sS'rpr90 w_comb'
p37
F0.084118404119461046
sS'rpr80 PMI_classes_max'
p38
F0.071557567707762532
sS'pr55 TOT_CORR_classes_min'
p39
F0.10047951428383042
sS'r20 w_ic_pmi'
p40
F0.10493411826001063
sS'rpr50 TOT_CORR_classes_max'
p41
F0.077960138362270531
sS'rpr55 PMI_classes_min'
p42
F0.073579206874854211
sS'pr70 no_w'
p43
F0.10552745287627639
sS'r60 p_o'
p44
F0.094751132451251968
sS'r50 w_comb'
p45
F0.10195389916943817
sS'pr20 INTERACT_spo'
p46
F0.10728745249237451
sS'r65 PMI_classes_min'
p47
F0.10362692829907269
sS'pr90 IC_obj'
p48
F0.10579623330986718
sS'pr75 TOT_CORR_spo'
p49
F0.10585996875926325
sS'rpr95 PMI_classes_min'
p50
F0.070397002257237495
sS'pr65 IC_pred'
p51
F0.098340635385625125
sS'rpr20 INTERACT_classes_max'
p52
F0.078455621415808849
sS'rpr50 IC_pred'
p53
F0.075670399485135792
sS'r10 INTERACT_spo'
p54
F0.10893160002709613
sS'pr30 w_join'
p55
F0.10547355853196219
sS'rpr40 INTERACT_spo'
p56
F0.080105383091601978
sS'r20 IC_obj'
p57
F0.10703249717513115
sS'rpr55 w_comb'
p58
F0.078453998203773578
sS'r75 PMI_pred_obj'
p59
F0.092120381927351475
sS'pr30 INTERACT_classes_max'
p60
F0.1111111111111111
sS'rpr80 TOT_CORR_spo'
p61
F0.088616783190075515
sS'pr95 no_w'
p62
F0.10803393217812761
sS'pr30 PMI_classes_max'
p63
F0.10752688614540465
sS'rpr95 w_join'
p64
F0.090620454586940333
sS'pr70 PMI_classes_min'
p65
F0.10309276068274746
sS'pr50 w_ic_pmi'
p66
F0.09871747694690361
sS'r85 w_ic_pmi'
p67
F0.095133894642018824
sS'pr30 no_w'
p68
F0.10612374100746835
sS'rpr90 no_w'
p69
F0.091573107516508587
sS'r90 TOT_CORR_classes_min'
p70
F0.099669697364627774
sS'r65 w_join'
p71
F0.10374017152702386
sS'pr10 INTERACT_spo'
p72
F0.10893160002709613
sS'r40 p_o'
p73
F0.098557726655409184
sS'pr95 p_o'
p74
F0.090776672470697484
sS'pr95 IC_pred'
p75
F0.097221033148749983
sS'pr55 PMI_pred_obj'
p76
F0.095412130499854475
sS'pr55 IC_obj'
p77
F0.10413791716531767
sS'r70 p_o'
p78
F0.093308532661331489
sS'rpr60 w_comb'
p79
F0.079032809296062309
sS'rpr90 TOT_CORR_spo'
p80
F0.091573107516508587
sS'r10 PMI_classes_max'
p81
F0.10989010821521109
sS'pr90 w_ic_pmi'
p82
F0.094906692837410239
sS'r70 PMI_classes_max'
p83
F0.10309276068274746
sS'r75 IC_pred'
p84
F0.09768382123833165
sS'pr10 IC_obj'
p85
F0.10882081112082681
sS'r50 IC_obj'
p86
F0.10425995733263621
sS'rpr60 PMI_pred_obj'
p87
F0.070441359281552957
sS'r75 IC_obj'
p88
F0.10455208214952258
sS'r20 PMI_classes_min'
p89
F0.10869565276295959
sS'rpr10 w_comb'
p90
F0.077421514750611278
sS'pr60 IC_obj'
p91
F0.10410723987949076
sS'r30 w_join'
p92
F0.10547355853196219
sS'pr60 w_join'
p93
F0.10371605436291871
sS'r60 INTERACT_spo'
p94
F0.10512017276463051
sS'r70 INTERACT_classes_min'
p95
F0.11111111111111113
sS'rpr30 w_ic_pmi'
p96
F0.074683481980995503
sS'r50 INTERACT_classes_min'
p97
F0.11111111111111112
sS'pr75 w_comb'
p98
F0.10090654784903333
sS'pr80 INTERACT_classes_min'
p99
F0.11111111111111112
sS'rpr75 PMI_classes_min'
p100
F0.071952995005975753
sS'pr80 TOT_CORR_classes_min'
p101
F0.099491298350117816
sS'pr90 p_o'
p102
F0.091174334640412955
sS'pr80 w_ic_pmi'
p103
F0.095429790202969433
sS'r60 w_ic_pmi'
p104
F0.097323253159867756
sS'pr40 p_o'
p105
F0.098557726655409184
sS'r20 no_w'
p106
F0.10728745249237451
sS'r60 TOT_CORR_classes_max'
p107
F0.10011384841585
sS'r20 INTERACT_classes_min'
p108
F0.11111111111111112
sS'rpr50 IC_obj'
p109
F0.080534482574078609
sS'pr30 p_o'
p110
F0.10100252377742736
sS'pr85 TOT_CORR_classes_max'
p111
F0.09953989201346844
sS'pr60 IC_pred'
p112
F0.098780598216064247
sS'pr75 TOT_CORR_classes_max'
p113
F0.099523692537099015
sS'pr80 PMI_classes_min'
p114
F0.10204076599283833
sS'r75 w_join'
p115
F0.10403831428062163
sS'pr90 IC_pred'
p116
F0.09723340289557908
sS'pr85 INTERACT_classes_max'
p117
F0.11111111111111113
sS'rpr95 no_w'
p118
F0.0931660600754875
sS'r50 no_w'
p119
F0.10507042427321696
sS'pr90 INTERACT_classes_min'
p120
F0.11111111111111113
sS'r50 TOT_CORR_classes_max'
p121
F0.10093341409209575
sS'pr90 PMI_classes_max'
p122
F0.10101011111111112
sS'r30 w_comb'
p123
F0.10435493841189424
sS'pr75 no_w'
p124
F0.10585996875926325
sS'rpr20 PMI_classes_min'
p125
F0.076609361887126942
sS'rpr75 TOT_CORR_classes_max'
p126
F0.081836665363840891
sS'rpr50 PMI_classes_min'
p127
F0.073997325989551721
sS'pr55 w_join'
p128
F0.10377838963393692
sS'r95 PMI_pred_obj'
p129
F0.089929964213294689
sS'r10 TOT_CORR_spo'
p130
F0.10893160002709613
sS'pr50 p_o'
p131
F0.096488307847695284
sS'rpr70 PMI_classes_max'
p132
F0.072352762854387964
sS'r95 w_ic_pmi'
p133
F0.094748618110723715
sS'rpr20 w_comb'
p134
F0.076911963714687573
sS'pr85 PMI_pred_obj'
p135
F0.09088927048501233
sS'r20 IC_pred'
p136
F0.10534927849304887
sS'r10 IC_pred'
p137
F0.10798591135997557
sS'pr70 IC_pred'
p138
F0.097975753420122977
sS'rpr90 TOT_CORR_classes_max'
p139
F0.085125965694659425
sS'rpr70 PMI_pred_obj'
p140
F0.070102573688657216
sS'r10 w_ic_pmi'
p141
F0.10779024462704569
sS'pr60 TOT_CORR_classes_min'
p142
F0.10011384841585
sS'rpr70 IC_obj'
p143
F0.08420627138945927
sS'pr20 PMI_classes_min'
p144
F0.10869565276295959
sS'pr50 PMI_pred_obj'
p145
F0.096414746686812186
sS'r60 INTERACT_classes_min'
p146
F0.11111111111111113
sS'r90 IC_obj'
p147
F0.10579623330986718
sS'pr50 IC_obj'
p148
F0.10425995733263621
sS'r40 INTERACT_classes_max'
p149
F0.11111111111111112
sS'pr30 PMI_pred_obj'
p150
F0.10120372011642612
sS'r80 TOT_CORR_classes_min'
p151
F0.099491298350117816
sS'rpr85 TOT_CORR_spo'
p152
F0.090056630832251031
sS'pr65 TOT_CORR_classes_max'
p153
F0.099833768456240812
sS'r95 p_o'
p154
F0.090776672470697484
sS'pr95 PMI_classes_min'
p155
F0.10050252723668149
sS'r10 IC_obj'
p156
F0.10882081112082681
sS'pr95 w_join'
p157
F0.10560672585736655
sS'pr50 PMI_classes_min'
p158
F0.10526315479987429
sS'pr60 INTERACT_classes_min'
p159
F0.11111111111111113
sS'rpr20 TOT_CORR_classes_max'
p160
F0.076620309792494956
sS'rpr10 INTERACT_classes_max'
p161
F0.078455621415808849
sS'r85 INTERACT_classes_min'
p162
F0.11111111111111113
sS'pr40 w_comb'
p163
F0.10296775834271599
sS'r75 TOT_CORR_spo'
p164
F0.10585996875926325
sS'r55 IC_obj'
p165
F0.10413791716531767
sS'rpr40 PMI_pred_obj'
p166
F0.071911407853732151
sS'pr65 PMI_classes_min'
p167
F0.10362692829907269
sS'r30 IC_pred'
p168
F0.10314927776643243
sS'rpr95 w_comb'
p169
F0.085223878866561284
sS'r85 w_join'
p170
F0.10466282526897594
sS'pr75 IC_obj'
p171
F0.10455208214952258
sS'pr90 TOT_CORR_classes_min'
p172
F0.099669697364627774
sS'pr80 no_w'
p173
F0.10627789117510825
sS'rpr70 p_o'
p174
F0.072100831283801931
sS'pr55 PMI_classes_max'
p175
F0.10471203643078439
sS'pr20 no_w'
p176
F0.10728745249237451
sS'pr80 IC_pred'
p177
F0.097463672977268531
sS'r40 w_join'
p178
F0.10450573183863673
sS'rpr60 no_w'
p179
F0.083658757890592794
sS'r55 p_o'
p180
F0.095580697912322682
sS'r95 INTERACT_classes_min'
p181
F0.11111111111111113
sS'rpr65 INTERACT_classes_max'
p182
F0.078455621415808863
sS'r90 PMI_pred_obj'
p183
F0.090375786180983603
sS'r40 w_comb'
p184
F0.10296775834271599
sS'r30 INTERACT_spo'
p185
F0.10612374100746835
sS'rpr50 w_ic_pmi'
p186
F0.074059881206888362
sS'r50 PMI_pred_obj'
p187
F0.096414746686812186
sS'pr85 p_o'
p188
F0.091622957702511776
sS'rpr70 no_w'
p189
F0.08597369838694488
sS'rpr55 TOT_CORR_spo'
p190
F0.082630909721350426
sS'pr30 TOT_CORR_classes_max'
p191
F0.10368520338953029
sS'rpr85 IC_pred'
p192
F0.078899208839376567
sS'entity'
p193
L6531L
sS'r90 PMI_classes_min'
p194
F0.10101011111111112
sS'pr85 no_w'
p195
F0.10677973051392267
sS'r20 TOT_CORR_spo'
p196
F0.10728745249237451
sS'r85 IC_pred'
p197
F0.097314169813271095
sS'rpr65 PMI_classes_max'
p198
F0.072756997872107126
sS'pr75 PMI_classes_max'
p199
F0.10256406821559212
sS'rpr20 INTERACT_spo'
p200
F0.07822311918709976
sS'r30 w_ic_pmi'
p201
F0.10249483455833039
sS'rpr55 INTERACT_classes_max'
p202
F0.078455621415808849
sS'pr40 INTERACT_classes_max'
p203
F0.11111111111111112
sS'pr85 IC_pred'
p204
F0.097314169813271095
sS'rpr75 PMI_pred_obj'
p205
F0.070030814833542204
sS'pr55 no_w'
p206
F0.10504959830079173
sS'rpr85 IC_obj'
p207
F0.087870662750081263
sS'r30 p_o'
p208
F0.10100252377742736
sS'r90 INTERACT_spo'
p209
F0.1073648118447597
sS'rpr20 IC_obj'
p210
F0.077888033036560556
sS'rpr20 p_o'
p211
F0.074456565194478463
sS'pr90 w_join'
p212
F0.10509469884407784
sS'rpr90 PMI_classes_min'
p213
F0.070779656293006032
sS'rpr75 INTERACT_spo'
p214
F0.08725506847072384
sS'r55 PMI_classes_max'
p215
F0.10471203643078439
sS'pr55 TOT_CORR_classes_max'
p216
F0.10047951428383042
sS'pr65 w_join'
p217
F0.10374017152702386
sS'rpr85 INTERACT_classes_min'
p218
F0.078455621415808849
sS'rpr90 INTERACT_classes_min'
p219
F0.078455621415808863
sS'rpr80 w_ic_pmi'
p220
F0.075361873958658898
sS'r50 w_ic_pmi'
p221
F0.09871747694690361
sS'rpr75 p_o'
p222
F0.072264242186851291
sS'r55 INTERACT_classes_min'
p223
F0.11111111111111112
sS'r90 p_o'
p224
F0.091174334640412955
sS'pr95 INTERACT_classes_min'
p225
F0.11111111111111113
sS'rpr40 INTERACT_classes_min'
p226
F0.078455621415808849
sS'r70 TOT_CORR_classes_max'
p227
F0.099637060877890482
sS'r65 w_ic_pmi'
p228
F0.096741044542420385
sS'pr50 INTERACT_classes_min'
p229
F0.11111111111111112
sS'rpr60 p_o'
p230
F0.071944449181191139
sS'rpr95 INTERACT_classes_min'
p231
F0.078455621415808863
sS'rpr65 IC_pred'
p232
F0.076631920075831597
sS'r90 TOT_CORR_classes_max'
p233
F0.099669697364627774
sS'rpr50 w_comb'
p234
F0.077958070050592909
sS'pr20 IC_obj'
p235
F0.10703249717513115
sS'r80 INTERACT_classes_max'
p236
F0.11111111111111112
sS'pr90 w_comb'
p237
F0.10123524499077453
sS'r95 PMI_classes_max'
p238
F0.10050252723668149
sS'r40 TOT_CORR_spo'
p239
F0.10539579740113539
sS'r85 p_o'
p240
F0.091622957702511776
sS'pr55 w_comb'
p241
F0.10157854747944943
sS'rpr60 TOT_CORR_classes_max'
p242
F0.079250208941839512
sS'rpr20 TOT_CORR_spo'
p243
F0.07822311918709976
sS'r85 PMI_pred_obj'
p244
F0.09088927048501233
sS'rpr10 PMI_classes_max'
p245
F0.077521501163596032
sS'pr80 w_join'
p246
F0.10431040312223451
sS'r40 IC_obj'
p247
F0.10478367075958356
sS'rpr50 PMI_pred_obj'
p248
F0.071041824907907031
sS'rpr75 IC_pred'
p249
F0.07763220367589474
sS'r90 w_comb'
p250
F0.10123524499077453
sS'r55 INTERACT_spo'
p251
F0.10504959830079173
sS'r20 TOT_CORR_classes_min'
p252
F0.10567657079799497
sS'pr70 TOT_CORR_classes_max'
p253
F0.099637060877890482
sS'r75 TOT_CORR_classes_min'
p254
F0.099523692537099015
sS'r40 no_w'
p255
F0.10539579740113539
sS'r10 PMI_pred_obj'
p256
F0.10739715300004946
sS'rpr85 INTERACT_spo'
p257
F0.090056630832251031
sS'r70 PMI_pred_obj'
p258
F0.092838508963371244
sS'r10 w_comb'
p259
F0.10838123543804359
sS'pr85 w_ic_pmi'
p260
F0.095133894642018824
sS'r70 PMI_classes_min'
p261
F0.10309276068274746
sS'r10 PMI_classes_min'
p262
F0.10989010821521109
sS'rpr55 PMI_pred_obj'
p263
F0.070708320333174146
sS'rpr30 PMI_classes_min'
p264
F0.075718434891888217
sS'rpr65 p_o'
p265
F0.071992506243755416
sS'pr40 PMI_classes_max'
p266
F0.10638299717184034
sS'pr80 IC_obj'
p267
F0.10487811075059582
sS'pr50 no_w'
p268
F0.10507042427321696
sS'pr70 PMI_pred_obj'
p269
F0.092838508963371244
sS'r10 INTERACT_classes_min'
p270
F0.1111111111111111
sS'rpr80 no_w'
p271
F0.088616783190075515
sS'rpr70 IC_pred'
p272
F0.077097751323858557
sS'r80 PMI_classes_max'
p273
F0.10204076599283833
sS'pr60 PMI_classes_max'
p274
F0.10416665752171925
sS'rpr70 w_join'
p275
F0.084201960872643408
sS'rpr20 w_ic_pmi'
p276
F0.075520003026955176
sS'pr40 TOT_CORR_classes_min'
p277
F0.10211533835452252
sS'rpr40 TOT_CORR_classes_min'
p278
F0.077059193091374517
sS'r20 INTERACT_classes_max'
p279
F0.11111111111111112
sS'pr90 no_w'
p280
F0.1073648118447597
sS'pr60 w_comb'
p281
F0.10128801797977149
sS'pr80 p_o'
p282
F0.092125963769885438
sS'pr80 TOT_CORR_classes_max'
p283
F0.099491298350117816
sS'pr80 INTERACT_classes_max'
p284
F0.11111111111111112
sS'r70 no_w'
p285
F0.10552745287627639
sS'pr90 INTERACT_classes_max'
p286
F0.11111111111111113
sS'pr20 w_join'
p287
F0.1068658742506941
sS'rpr65 INTERACT_spo'
p288
F0.084774413956711758
sS'r80 IC_obj'
p289
F0.10487811075059582
sS'pr75 w_ic_pmi'
p290
F0.095795393173862473
sS'r50 PMI_classes_max'
p291
F0.10526315479987429
sS'pr50 TOT_CORR_classes_min'
p292
F0.10093341409209575
sS'r65 PMI_pred_obj'
p293
F0.093625914312509328
sS'rpr50 PMI_classes_max'
p294
F0.073997325989551721
sS'r40 INTERACT_spo'
p295
F0.10539579740113539
sS'rpr70 PMI_classes_min'
p296
F0.072352762854387964
sS'r30 PMI_pred_obj'
p297
F0.10120372011642612
sS'r70 w_ic_pmi'
p298
F0.096232389169244814
sS'rpr95 IC_pred'
p299
F0.080419282866836569
sS'r85 PMI_classes_max'
p300
F0.10152284944413253
sS'rpr55 TOT_CORR_classes_min'
p301
F0.078558818073028391
sS'pr55 INTERACT_classes_min'
p302
F0.11111111111111112
sS'r80 TOT_CORR_spo'
p303
F0.10627789117510825
sS'pr50 w_comb'
p304
F0.10195389916943817
sS'r40 TOT_CORR_classes_min'
p305
F0.10211533835452252
sS'rpr95 TOT_CORR_spo'
p306
F0.0931660600754875
sS'r90 INTERACT_classes_min'
p307
F0.11111111111111113
sS'pr50 IC_pred'
p308
F0.099896027924232161
sS'r80 PMI_pred_obj'
p309
F0.091471163212931694
sS'rpr95 TOT_CORR_classes_min'
p310
F0.086366671551409771
sS'r70 INTERACT_spo'
p311
F0.10552745287627639
sS'pr60 PMI_pred_obj'
p312
F0.094482973050291352
sS'pr75 INTERACT_classes_min'
p313
F0.11111111111111112
sS'r75 w_comb'
p314
F0.10090654784903333
sS'rpr60 w_join'
p315
F0.082172930426395965
sS'r80 TOT_CORR_classes_max'
p316
F0.099491298350117816
sS'r20 w_comb'
p317
F0.10614583291485752
sS'rpr75 PMI_classes_max'
p318
F0.071952995005975753
sS'pr65 TOT_CORR_classes_min'
p319
F0.099833768456240812
sS'rpr75 INTERACT_classes_max'
p320
F0.078455621415808849
sS'pr40 TOT_CORR_spo'
p321
F0.10539579740113539
sS'pr65 p_o'
p322
F0.093995342130818574
sS'r30 no_w'
p323
F0.10612374100746835
sS'r50 w_join'
p324
F0.1039291474510399
sS'pr50 PMI_classes_max'
p325
F0.10526315479987429
sS'pr95 PMI_classes_max'
p326
F0.10050252723668149
sS'rpr50 w_join'
p327
F0.08048207232252505
sS'r55 IC_pred'
p328
F0.099298277179535321
sS'r90 no_w'
p329
F0.1073648118447597
sS'r80 INTERACT_classes_min'
p330
F0.11111111111111112
sS'r60 PMI_classes_max'
p331
F0.10416665752171925
sS'r95 INTERACT_classes_max'
p332
F0.11111111111111113
sS'rpr65 INTERACT_classes_min'
p333
F0.078455621415808863
sS'pr40 w_join'
p334
F0.10450573183863673
sS'r65 no_w'
p335
F0.10528026215602088
sS'pr55 TOT_CORR_spo'
p336
F0.10504959830079173
sS'r95 TOT_CORR_classes_max'
p337
F0.099879096597767017
sS'pr55 PMI_classes_min'
p338
F0.10471203643078439
sS'rpr60 INTERACT_spo'
p339
F0.083658757890592794
sS'rpr75 INTERACT_classes_min'
p340
F0.078455621415808849
sS'pr0'
p341
F0.1111111111111111
sS'pr90 TOT_CORR_classes_max'
p342
F0.099669697364627774
sS'pr10 w_ic_pmi'
p343
F0.10779024462704569
sS'pr70 p_o'
p344
F0.093308532661331489
sS'r65 TOT_CORR_classes_max'
p345
F0.099833768456240812
sS'r85 INTERACT_spo'
p346
F0.10677973051392267
sS'pr10 PMI_pred_obj'
p347
F0.10739715300004946
sS'r40 w_ic_pmi'
p348
F0.10043276112639263
sS'r90 IC_pred'
p349
F0.09723340289557908
sS'rpr90 TOT_CORR_classes_min'
p350
F0.085125965694659425
sS'pr40 IC_obj'
p351
F0.10478367075958356
sS'rpr65 no_w'
p352
F0.084774413956711758
sS'pr75 IC_pred'
p353
F0.09768382123833165
sS'rpr75 w_join'
p354
F0.085335648465673125
sS'r90 w_join'
p355
F0.10509469884407784
sS'rpr10 w_join'
p356
F0.077817389173718554
sS'rpr70 TOT_CORR_classes_max'
p357
F0.080892230786886482
sS'r30 PMI_classes_min'
p358
F0.10752688614540465
sS'r85 no_w'
p359
F0.10677973051392267
sS'rpr80 INTERACT_classes_min'
p360
F0.078455621415808863
sS'pr70 INTERACT_classes_max'
p361
F0.11111111111111113
sS'rpr85 w_join'
p362
F0.087831327726677302
sS'rpr65 TOT_CORR_classes_max'
p363
F0.080029086592910664
sS'r20 w_join'
p364
F0.1068658742506941
sS'r80 p_o'
p365
F0.092125963769885438
sS'pr10 w_join'
p366
F0.10872698992837453
sS'pr40 no_w'
p367
F0.10539579740113539
sS'pr20 TOT_CORR_classes_min'
p368
F0.10567657079799497
sS'pr10 w_comb'
p369
F0.10838123543804359
sS'pr85 PMI_classes_max'
p370
F0.10152284944413253
sS'pr75 PMI_pred_obj'
p371
F0.092120381927351475
sS'rpr65 IC_obj'
p372
F0.083156778230596237
sS'rpr60 INTERACT_classes_max'
p373
F0.078455621415808863
sS'pr90 TOT_CORR_spo'
p374
F0.1073648118447597
sS'r55 PMI_classes_min'
p375
F0.10471203643078439
sS'rpr90 PMI_classes_max'
p376
F0.070779656293006032
sS'rpr75 w_ic_pmi'
p377
F0.074973882012944179
sS'rpr30 INTERACT_spo'
p378
F0.078932827088414773
sS'r60 no_w'
p379
F0.10512017276463051
sS'r70 TOT_CORR_classes_min'
p380
F0.099637060877890482
sS'r55 INTERACT_classes_max'
p381
F0.11111111111111112
sS'pr90 PMI_pred_obj'
p382
F0.090375786180983603
sS'r65 IC_obj'
p383
F0.10416715931045889
sS'rpr60 IC_pred'
p384
F0.076236490130012879
sS'pr95 INTERACT_classes_max'
p385
F0.11111111111111113
sS'rpr80 w_comb'
p386
F0.082125974172558958
sS'pr20 w_comb'
p387
F0.10614583291485752
sS'pr80 w_comb'
p388
F0.10093849393462749
sS'rpr90 INTERACT_classes_max'
p389
F0.078455621415808863
sS'rpr20 w_join'
p390
F0.077770195081987847
sS'pr10 no_w'
p391
F0.10893160002709613
sS'rpr85 w_ic_pmi'
p392
F0.075814802714188695
sS'rpr10 INTERACT_spo'
p393
F0.078038219245633172
sS'pr60 TOT_CORR_classes_max'
p394
F0.10011384841585
sS'pr60 INTERACT_spo'
p395
F0.10512017276463051
sS'pr50 INTERACT_spo'
p396
F0.10507042427321696
sS'pr55 w_ic_pmi'
p397
F0.097981415226450375
sS'rpr40 INTERACT_classes_max'
p398
F0.078455621415808849
sS'rpr70 INTERACT_classes_max'
p399
F0.078455621415808863
sS'rpr20 PMI_classes_max'
p400
F0.076609361887126942
sS'r90 TOT_CORR_spo'
p401
F0.1073648118447597
sS'pr20 PMI_pred_obj'
p402
F0.10410867753140181
sS'r65 w_comb'
p403
F0.10108062102465064
sS'r75 INTERACT_spo'
p404
F0.10585996875926325
sS'r20 INTERACT_spo'
p405
F0.10728745249237451
sS'pr95 INTERACT_spo'
p406
F0.10803393217812761
sS'r10 p_o'
p407
F0.10722047499133704
sS'rpr65 PMI_pred_obj'
p408
F0.070239694542893708
sS'r85 TOT_CORR_classes_min'
p409
F0.09953989201346844
sS'rpr40 PMI_classes_min'
p410
F0.074847988087867176
sS'pr10 INTERACT_classes_max'
p411
F0.1111111111111111
sS'rpr85 no_w'
p412
F0.090056630832251031
sS'degree'
p413
L1L
sS'r40 IC_pred'
p414
F0.10134274417279478
sS'r55 w_ic_pmi'
p415
F0.097981415226450375
sS'rpr60 TOT_CORR_classes_min'
p416
F0.079250208941839512
sS'r10 TOT_CORR_classes_max'
p417
F0.10813370268395177
sS'pr70 TOT_CORR_classes_min'
p418
F0.099637060877890482
sS'pr40 INTERACT_spo'
p419
F0.10539579740113539
sS'r20 p_o'
p420
F0.10387172613632656
sS'rpr50 INTERACT_classes_min'
p421
F0.078455621415808849
sS'rpr10 w_ic_pmi'
p422
F0.076759582730253503
sS'rpr55 p_o'
p423
F0.071961628448105969
sS'pr80 TOT_CORR_spo'
p424
F0.10627789117510825
sS'rpr30 PMI_classes_max'
p425
F0.075718434891888217
sS'pr60 PMI_classes_min'
p426
F0.10416665752171925
sS'rpr10 INTERACT_classes_min'
p427
F0.078455621415808849
sS'r50 IC_pred'
p428
F0.099896027924232161
sS'pr95 TOT_CORR_classes_max'
p429
F0.099879096597767017
sS'r75 TOT_CORR_classes_max'
p430
F0.099523692537099015
sS'rpr70 TOT_CORR_classes_min'
p431
F0.080892230786886482
sS'pr20 p_o'
p432
F0.10387172613632656
sS'r90 PMI_classes_max'
p433
F0.10101011111111112
sS'pr60 TOT_CORR_spo'
p434
F0.10512017276463051
sS'rpr75 no_w'
p435
F0.08725506847072384
sS'rpr65 PMI_classes_min'
p436
F0.072756997872107126
sS'rpr55 w_join'
p437
F0.081283577839715473
sS'pr40 w_ic_pmi'
p438
F0.10043276112639263
sS'rpr60 PMI_classes_min'
p439
F0.073165789715930421
sS'pr95 PMI_pred_obj'
p440
F0.089929964213294689
sS'r65 TOT_CORR_spo'
p441
F0.10528026215602088
sS'r75 p_o'
p442
F0.092686837464518126
sS'pr10 TOT_CORR_classes_min'
p443
F0.10813370268395177
sS'rpr30 w_comb'
p444
F0.076863165546664933
sS'rpr95 INTERACT_spo'
p445
F0.0931660600754875
sS'rpr85 p_o'
p446
F0.072738614166027143
sS'rpr80 PMI_pred_obj'
p447
F0.070024062876131443
sS'r70 TOT_CORR_spo'
p448
F0.10552745287627639
sS'pr65 INTERACT_classes_max'
p449
F0.11111111111111113
sS'rpr65 w_join'
p450
F0.083147158250447467
sS'rpr30 w_join'
p451
F0.078237299348792283
sS'rpr90 IC_obj'
p452
F0.08926381972508271
sS'pr95 TOT_CORR_spo'
p453
F0.10803393217812761
sS'pr65 no_w'
p454
F0.10528026215602088
sS'rpr85 TOT_CORR_classes_min'
p455
F0.083955284442666325
sS'r65 INTERACT_spo'
p456
F0.10528026215602088
sS'rpr10 PMI_pred_obj'
p457
F0.076304800813488671
sS'r75 w_ic_pmi'
p458
F0.095795393173862473
sS'pr60 p_o'
p459
F0.094751132451251968
sS'rpr85 PMI_classes_min'
p460
F0.071166488078741291
sS'rpr30 PMI_pred_obj'
p461
F0.073064238782592064
sS'pr20 w_ic_pmi'
p462
F0.10493411826001063
sS'pr80 PMI_pred_obj'
p463
F0.091471163212931694
sS'r40 PMI_classes_min'
p464
F0.10638299717184034
sS'rpr30 IC_pred'
p465
F0.075533109590951455
sS'r85 w_comb'
p466
F0.10104831321737504
sS'r65 INTERACT_classes_max'
p467
F0.11111111111111113
sS'r60 PMI_classes_min'
p468
F0.10416665752171925
sS'r10 w_join'
p469
F0.10872698992837453
sS'pr85 w_comb'
p470
F0.10104831321737504
sS'rpr50 no_w'
p471
F0.081693728550858741
sS'r90 INTERACT_classes_max'
p472
F0.11111111111111113
sS'r55 w_join'
p473
F0.10377838963393692
sS'pr55 INTERACT_classes_max'
p474
F0.11111111111111112
sS'r80 no_w'
p475
F0.10627789117510825
sS'r80 IC_pred'
p476
F0.097463672977268531
sS'rpr85 w_comb'
p477
F0.083085743650140917
sS'pr60 w_ic_pmi'
p478
F0.097323253159867756
sS'pr85 w_join'
p479
F0.10466282526897594
sS'r50 INTERACT_spo'
p480
F0.10507042427321696
sS'r75 PMI_classes_min'
p481
F0.10256406821559212
sS'rpr95 w_ic_pmi'
p482
F0.076915609135176408
sS'rpr65 w_comb'
p483
F0.079691327142372065
sS'rpr50 TOT_CORR_classes_min'
p484
F0.077960138362270531
sS'rpr10 IC_obj'
p485
F0.07790211270763861
sS'rpr90 PMI_pred_obj'
p486
F0.070208358726467066
sS'rpr80 PMI_classes_min'
p487
F0.071557567707762532
sS'pr65 INTERACT_spo'
p488
F0.10528026215602088
sS'rpr90 p_o'
p489
F0.073040665066662888
sS'pr10 TOT_CORR_spo'
p490
F0.10893160002709613
sS'rpr55 PMI_classes_max'
p491
F0.073579206874854211
sS'r65 TOT_CORR_classes_min'
p492
F0.099833768456240812
sS'r30 INTERACT_classes_min'
p493
F0.1111111111111111
sS'r95 TOT_CORR_classes_min'
p494
F0.099879096597767017
sS'r60 w_join'
p495
F0.10371605436291871
sS'r55 TOT_CORR_classes_min'
p496
F0.10047951428383042
sS'rpr70 w_ic_pmi'
p497
F0.074652710223544611
sS'pr70 TOT_CORR_spo'
p498
F0.10552745287627639
sS'pr95 IC_obj'
p499
F0.10639097765524398
sS'pr10 TOT_CORR_classes_max'
p500
F0.10813370268395177
sS'rpr10 PMI_classes_min'
p501
F0.077521501163596032
sS'r55 w_comb'
p502
F0.10157854747944943
sS'r80 w_comb'
p503
F0.10093849393462749
sS'pr60 no_w'
p504
F0.10512017276463051
sS'r75 INTERACT_classes_min'
p505
F0.11111111111111112
sS'pr10 PMI_classes_max'
p506
F0.10989010821521109
sS'pr10 IC_pred'
p507
F0.10798591135997557
sS'r60 IC_pred'
p508
F0.098780598216064247
sS'r70 w_comb'
p509
F0.10095404238638311
sS'pr90 INTERACT_spo'
p510
F0.1073648118447597
sS'r95 TOT_CORR_spo'
p511
F0.10803393217812761
sS'rpr40 TOT_CORR_classes_max'
p512
F0.077059193091374517
sS'pr40 PMI_pred_obj'
p513
F0.09864773260290835
sS'pr40 TOT_CORR_classes_max'
p514
F0.10211533835452252
sS'r30 PMI_classes_max'
p515
F0.10752688614540465
sS'rpr30 INTERACT_classes_max'
p516
F0.078455621415808835
sS'r60 PMI_pred_obj'
p517
F0.094482973050291352
sS'r30 TOT_CORR_classes_min'
p518
F0.10368520338953029
sS'pr75 INTERACT_spo'
p519
F0.10585996875926325
sS'rpr10 p_o'
p520
F0.076165781673533495
sS'rpr30 no_w'
p521
F0.078932827088414773
sS'r20 PMI_classes_max'
p522
F0.10869565276295959
sS'pr20 TOT_CORR_classes_max'
p523
F0.10567657079799497
sS'pr20 IC_pred'
p524
F0.10534927849304887
sS'r50 p_o'
p525
F0.096488307847695284
sS'rpr10 no_w'
p526
F0.078038219245633172
sS'pr20 INTERACT_classes_min'
p527
F0.11111111111111112
sS'rpr60 INTERACT_classes_min'
p528
F0.078455621415808863
sS'r95 INTERACT_spo'
p529
F0.10803393217812761
sS'r65 IC_pred'
p530
F0.098340635385625125
sS'rpr75 IC_obj'
p531
F0.085342589745457234
sS'r80 INTERACT_spo'
p532
F0.10627789117510825
sS'r85 INTERACT_classes_max'
p533
F0.11111111111111113
sS'rpr40 IC_pred'
p534
F0.075424437912766373
sS'r95 w_join'
p535
F0.10560672585736655
sS'rpr40 IC_obj'
p536
F0.079245003957064519
sS'pr30 INTERACT_spo'
p537
F0.10612374100746835
sS'r85 TOT_CORR_spo'
p538
F0.10677973051392267
sS'pr30 w_ic_pmi'
p539
F0.10249483455833039
sS'rpr70 TOT_CORR_spo'
p540
F0.08597369838694488
sS'rpr70 INTERACT_classes_min'
p541
F0.078455621415808863
sS'pr95 w_ic_pmi'
p542
F0.094748618110723715
sS'r60 w_comb'
p543
F0.10128801797977149
sS'rpr50 p_o'
p544
F0.072049912085268453
sS'pr55 IC_pred'
p545
F0.099298277179535321
sS'pr70 IC_obj'
p546
F0.10431525562544564
sS'rpr40 w_join'
p547
F0.079157002930344361
sS'r30 IC_obj'
p548
F0.10569922377073147
sS'rpr55 INTERACT_classes_min'
p549
F0.078455621415808849
sS'r40 PMI_pred_obj'
p550
F0.09864773260290835
sS'rpr85 INTERACT_classes_max'
p551
F0.078455621415808849
sS'pr50 TOT_CORR_spo'
p552
F0.10507042427321696
sS'rpr20 TOT_CORR_classes_min'
p553
F0.076620309792494956
sS'r55 no_w'
p554
F0.10504959830079173
sS'pr75 INTERACT_classes_max'
p555
F0.11111111111111112
sS'rpr65 TOT_CORR_spo'
p556
F0.084774413956711758
sS'pr65 TOT_CORR_spo'
p557
F0.10528026215602088
sS'pr30 w_comb'
p558
F0.10435493841189424
sS'rpr80 TOT_CORR_classes_min'
p559
F0.082858296703463979
sS'r20 TOT_CORR_classes_max'
p560
F0.10567657079799497
sS'rpr10 TOT_CORR_classes_min'
p561
F0.07721117802419962
sS'rpr50 INTERACT_classes_max'
p562
F0.078455621415808849
sS'pr65 w_ic_pmi'
p563
F0.096741044542420385
sS'r10 TOT_CORR_classes_min'
p564
F0.10813370268395177
sS'pr85 INTERACT_spo'
p565
F0.10677973051392267
sS'rpr85 PMI_pred_obj'
p566
F0.0700824393957869
sS'rpr80 IC_pred'
p567
F0.078233384832568753
sS'rpr75 TOT_CORR_classes_min'
p568
F0.081836665363840891
sS'rpr80 INTERACT_classes_max'
p569
F0.078455621415808863
sS'pr70 INTERACT_spo'
p570
F0.10552745287627639
sS'r85 TOT_CORR_classes_max'
p571
F0.09953989201346844
sS'r40 TOT_CORR_classes_max'
p572
F0.10211533835452252
sS'r65 p_o'
p573
F0.093995342130818574
sS'pr95 TOT_CORR_classes_min'
p574
F0.099879096597767017
sS'rpr20 INTERACT_classes_min'
p575
F0.078455621415808849
sS'rpr80 w_join'
p576
F0.086546337420168956
sS'r50 TOT_CORR_spo'
p577
F0.10507042427321696
sS'rpr90 IC_pred'
p578
F0.079628135416380433
sS'r20 PMI_pred_obj'
p579
F0.10410867753140181
sS'pr65 IC_obj'
p580
F0.10416715931045889
sS'pr30 TOT_CORR_spo'
p581
F0.10612374100746835
sS'pr30 PMI_classes_min'
p582
F0.10752688614540465
sS'pr70 PMI_classes_max'
p583
F0.10309276068274746
sS'rpr95 PMI_pred_obj'
p584
F0.070401542643431847
sS'pr70 w_ic_pmi'
p585
F0.096232389169244814
sS'pr30 INTERACT_classes_min'
p586
F0.1111111111111111
sS'pr85 IC_obj'
p587
F0.10529202858668887
sS'pr55 p_o'
p588
F0.095580697912322682
sS'rpr40 PMI_classes_max'
p589
F0.074847988087867176
sS'r50 PMI_classes_min'
p590
F0.10526315479987429
sS'r80 PMI_classes_min'
p591
F0.10204076599283833
sS'r95 IC_pred'
p592
F0.097221033148749983
sS'rpr65 w_ic_pmi'
p593
F0.074399209038961064
sS'rpr60 TOT_CORR_spo'
p594
F0.083658757890592794
sS'rpr90 INTERACT_spo'
p595
F0.091573107516508587
sS'rpr60 PMI_classes_max'
p596
F0.073165789715930421
sS'rpr65 TOT_CORR_classes_min'
p597
F0.080029086592910664
sS'pr70 INTERACT_classes_min'
p598
F0.11111111111111113
sS'pr50 TOT_CORR_classes_max'
p599
F0.10093341409209575
sS'r65 INTERACT_classes_min'
p600
F0.11111111111111113
sS'r50 INTERACT_classes_max'
p601
F0.11111111111111112
sS'r70 INTERACT_classes_max'
p602
F0.11111111111111113
sS'pr75 w_join'
p603
F0.10403831428062163
sS'rpr30 TOT_CORR_classes_max'
p604
F0.076593690669824466
sS'rpr85 PMI_classes_max'
p605
F0.071166488078741291
sS'r90 w_ic_pmi'
p606
F0.094906692837410239
sS'rpr90 w_join'
p607
F0.089189720531153829
sS'pr80 INTERACT_spo'
p608
F0.10627789117510825
sS'r80 w_join'
p609
F0.10431040312223451
sS'rpr40 TOT_CORR_spo'
p610
F0.080105383091601978
sS'rpr10 TOT_CORR_classes_max'
p611
F0.07721117802419962
sS'rpr55 no_w'
p612
F0.082630909721350426
sS'rpr30 IC_obj'
p613
F0.078351485115942476
sS'r40 PMI_classes_max'
p614
F0.10638299717184034
sS'r95 w_comb'
p615
F0.10150052635409799
sS'rpr55 TOT_CORR_classes_max'
p616
F0.078558818073028391
sS'pr75 TOT_CORR_classes_min'
p617
F0.099523692537099015
sS'pr85 TOT_CORR_classes_min'
p618
F0.09953989201346844
sS'rpr95 PMI_classes_max'
p619
F0.070397002257237495
sS'r95 IC_obj'
p620
F0.10639097765524398
sS'pr30 IC_pred'
p621
F0.10314927776643243
sS'r50 TOT_CORR_classes_min'
p622
F0.10093341409209575
sS'r30 TOT_CORR_spo'
p623
F0.10612374100746835
sS'rpr10 TOT_CORR_spo'
p624
F0.078038219245633172
sS'rpr95 TOT_CORR_classes_max'
p625
F0.086366671551409771
sS'r60 TOT_CORR_classes_min'
p626
F0.10011384841585
sS'r55 TOT_CORR_spo'
p627
F0.10504959830079173
sS'rpr55 IC_pred'
p628
F0.075915058243269218
sS'pr80 PMI_classes_max'
p629
F0.10204076599283833
sS'rpr85 TOT_CORR_classes_max'
p630
F0.083955284442666325
sS'pr10 INTERACT_classes_min'
p631
F0.1111111111111111
sS'pr90 PMI_classes_min'
p632
F0.10101011111111112
sS'rpr40 no_w'
p633
F0.080105383091601978
sS'in_degree'
p634
L1L
sS'rpr80 IC_obj'
p635
F0.086564292322151959
sS'r75 PMI_classes_max'
p636
F0.10256406821559212
sS'r70 IC_pred'
p637
F0.097975753420122977
sS'rpr95 p_o'
p638
F0.073381414801175063
sS'rpr40 w_comb'
p639
F0.077224552948677153
sS'pr85 INTERACT_classes_min'
p640
F0.11111111111111113
sS'pr30 IC_obj'
p641
F0.10569922377073147
sS'rpr75 w_comb'
p642
F0.081239003756148662
sS'out_degree'
p643
L0L
sS'rpr40 p_o'
p644
F0.072466038406292788
sS'pr20 TOT_CORR_spo'
p645
F0.10728745249237451
sS'pr95 w_comb'
p646
F0.10150052635409799
sS'rpr95 INTERACT_classes_max'
p647
F0.078455621415808863
sS'r30 INTERACT_classes_max'
p648
F0.1111111111111111
sS'pr50 INTERACT_classes_max'
p649
F0.11111111111111112
sS'r40 INTERACT_classes_min'
p650
F0.11111111111111112
sS'rpr50 TOT_CORR_spo'
p651
F0.081693728550858741
sS'rpr40 w_ic_pmi'
p652
F0.074207514198894375
sS'pr85 TOT_CORR_spo'
p653
F0.10677973051392267
sS'pr10 PMI_classes_min'
p654
F0.10989010821521109
sS'r60 INTERACT_classes_max'
p655
F0.11111111111111113
sS'rpr80 TOT_CORR_classes_max'
p656
F0.082858296703463979
sS'pr20 PMI_classes_max'
p657
F0.10869565276295959
sS'rpr60 w_ic_pmi'
p658
F0.074214140710935558
sS'rpr80 p_o'
p659
F0.072478097523365786
sS'r55 TOT_CORR_classes_max'
p660
F0.10047951428383042
sS'rpr80 INTERACT_spo'
p661
F0.088616783190075515
sS'r60 TOT_CORR_spo'
p662
F0.10512017276463051
sS'rpr10 IC_pred'
p663
F0.076989899272501022
sS'pr50 w_join'
p664
F0.1039291474510399
sS'rpr70 w_comb'
p665
F0.080427126084732389
sS'rpr50 INTERACT_spo'
p666
F0.081693728550858741
sS'rpr20 IC_pred'
p667
F0.076037356982427057
sS'pr65 PMI_pred_obj'
p668
F0.093625914312509328
sS'rpr95 IC_obj'
p669
F0.090742527489704225
sS'pr65 w_comb'
p670
F0.10108062102465064
sS'r75 INTERACT_classes_max'
p671
F0.11111111111111112
sS'rpr30 INTERACT_classes_min'
p672
F0.078455621415808835
sS'r60 IC_obj'
p673
F0.10410723987949076
sS'pr65 PMI_classes_max'
p674
F0.10362692829907269
sS'r95 PMI_classes_min'
p675
F0.10050252723668149
sS'pr60 INTERACT_classes_max'
p676
F0.11111111111111113
sS'pr65 INTERACT_classes_min'
p677
F0.11111111111111113
sS'r55 PMI_pred_obj'
p678
F0.095412130499854475
sS'starting'
p679
I01
sS'r30 TOT_CORR_classes_max'
p680
F0.10368520338953029
sa(dp681
g3
F0.22821706963570226
sg4
F0.22948684137686751
sg5
F0.19665149098553208
sg6
F0.10638299717184034
sg7
F0.07521105210708745
sg8
F0.24422217252751546
sg9
F0.1111111111111111
sg10
F0.073093928866297037
sg11
F0.22970292651171917
sg12
F0.10512892004945044
sg13
F0.11111111111111112
sg14
F0.074948102040727965
sg15
F0.089162127054003296
sg16
F0.09388816960049276
sg17
F0.1965227645435228
sg18
F0.17294437230846732
sg19
F0.10152284944413253
sg20
F0.1903473181287435
sg21
F0.068375529226324255
sg22
F0.10362692829907269
sg23
F0.10152284944413253
sg24
F0.074961877876747671
sg25
F0.24386989935177064
sg26
F0.11111111111111112
sg27
F0.1576748959125493
sg28
F0.071044026471919389
sg29
F0.10256406821559212
sg30
F0.10514972564232218
sg31
F0.064775778045715937
sg32
F0.19742244478187582
sg33
F0.07518976918070043
sg34
F0.07521105210708745
sg35
F0.081970414902553787
sg36
F0.17869245137261169
sg37
F0.15638015670457456
sg38
F0.25110385479191821
sg39
F0.081056329657945903
sg40
F0.099512116030760808
sg41
F0.19967139944113771
sg42
F0.25819802252450841
sg43
F0.075252962036950477
sg44
F0.080805555831330006
sg45
F0.084280232956160578
sg46
F0.099496932302927332
sg47
F0.10362692829907269
sg48
F0.066230712631619476
sg49
F0.073093928866297037
sg50
F0.24703129520527453
sg51
F0.077561657415095353
sg52
F0.27530993015387073
sg53
F0.20316759203482901
sg54
F0.10512892004945044
sg55
F0.094164257400360399
sg56
F0.2158602860187091
sg57
F0.099481188368322052
sg58
F0.19680275229916949
sg59
F0.072955578621677425
sg60
F0.1111111111111111
sg61
F0.16730207127630217
sg62
F0.064775778045715937
sg63
F0.10752688614540465
sg64
F0.1504931829229656
sg65
F0.10309276068274746
sg66
F0.084360103854409008
sg67
F0.068947008100480947
sg68
F0.094172778959000142
sg69
F0.15630831766404413
sg70
F0.064439866417672423
sg71
F0.077413351407705749
sg72
F0.10512892004945044
sg73
F0.089560891049789412
sg74
F0.068003100004047884
sg75
F0.06501238765769958
sg76
F0.081973440227795721
sg77
F0.081802859348119525
sg78
F0.076846303285381071
sg79
F0.1906948485011781
sg80
F0.15630831766404413
sg81
F0.10989010821521109
sg82
F0.066876295781049089
sg83
F0.10309276068274746
sg84
F0.073241689744694569
sg85
F0.10512548683428044
sg86
F0.084167724833933671
sg87
F0.19248153891769593
sg88
F0.072730683225121093
sg89
F0.10869565276295959
sg90
F0.25912006238904578
sg91
F0.079480502250250995
sg92
F0.094164257400360399
sg93
F0.079656419538074702
sg94
F0.079688048257864935
sg95
F0.11111111111111113
sg96
F0.22978534898706748
sg97
F0.11111111111111112
sg98
F0.073014747225548238
sg99
F0.11111111111111112
sg100
F0.25249145532184125
sg101
F0.069085255699764592
sg102
F0.069660428841235036
sg103
F0.071044026471919389
sg104
F0.079758658804086932
sg105
F0.089560891049789412
sg106
F0.099496932302927332
sg107
F0.0786075352730813
sg108
F0.11111111111111112
sg109
F0.20282411136744566
sg110
F0.094403527001310994
sg111
F0.06675578186618733
sg112
F0.079783620296459148
sg113
F0.07143175308519395
sg114
F0.10204076599283833
sg115
F0.073046435657408704
sg116
F0.067025554672499529
sg117
F0.11111111111111113
sg118
F0.15094183297365515
sg119
F0.084300548271408898
sg120
F0.11111111111111113
sg121
F0.083539384788423182
sg122
F0.10101011111111112
sg123
F0.09417006886063764
sg124
F0.073093928866297037
sg125
F0.26883119003665956
sg126
F0.16636180199745054
sg127
F0.25966525128627277
sg128
F0.081943493629597713
sg129
F0.064311444903883824
sg130
F0.10512892004945044
sg131
F0.085036310671266296
sg132
F0.2538942873488903
sg133
F0.064828219675248419
sg134
F0.24391124073268586
sg135
F0.068604291742425133
sg136
F0.099508237932404695
sg137
F0.10513181399821088
sg138
F0.075382032994842488
sg139
F0.14733837034590846
sg140
F0.18098727845642842
sg141
F0.10513326779538268
sg142
F0.0786075352730813
sg143
F0.17833445083687788
sg144
F0.10869565276295959
sg145
F0.084319105205434536
sg146
F0.11111111111111113
sg147
F0.066230712631619476
sg148
F0.084167724833933671
sg149
F0.11111111111111112
sg150
F0.094203183481432112
sg151
F0.069085255699764592
sg152
F0.1617588374339172
sg153
F0.07618948323714729
sg154
F0.068003100004047884
sg155
F0.10050252723668149
sg156
F0.10512548683428044
sg157
F0.064703638455763726
sg158
F0.10526315479987429
sg159
F0.11111111111111113
sg160
F0.24327891989446571
sg161
F0.27530993015387073
sg162
F0.11111111111111113
sg163
F0.089109540843304053
sg164
F0.073093928866297037
sg165
F0.081802859348119525
sg166
F0.21697471854944833
sg167
F0.10362692829907269
sg168
F0.094197705612611163
sg169
F0.15097369292554058
sg170
F0.068817614652505882
sg171
F0.072730683225121093
sg172
F0.064439866417672423
sg173
F0.070969527664102486
sg174
F0.1816927987376552
sg175
F0.10471203643078439
sg176
F0.099496932302927332
sg177
F0.071137444709940836
sg178
F0.089103779004108513
sg179
F0.19053799826176226
sg180
F0.082885656924500936
sg181
F0.11111111111111113
sg182
F0.27530993015387079
sg183
F0.066452717202333408
sg184
F0.089109540843304053
sg185
F0.094172778959000142
sg186
F0.20357604844969082
sg187
F0.084319105205434536
sg188
F0.071371317334147574
sg189
F0.17869245137261169
sg190
F0.19665149098553208
sg191
F0.09388816960049276
sg192
F0.1624413448112067
sg193
L165540L
sg194
F0.10101011111111112
sg195
F0.068876968299875635
sg196
F0.099496932302927332
sg197
F0.069066183602110573
sg198
F0.25531279519428973
sg199
F0.10256406821559212
sg200
F0.24386989935177064
sg201
F0.094202421283994614
sg202
F0.27530993015387073
sg203
F0.11111111111111112
sg204
F0.069066183602110573
sg205
F0.17538445514684298
sg206
F0.081970414902553787
sg207
F0.16102265371190694
sg208
F0.094403527001310994
sg209
F0.066813496517082627
sg210
F0.24388648375752461
sg211
F0.24391343687005501
sg212
F0.066747834289075395
sg213
F0.24837407286682911
sg214
F0.17294437230846732
sg215
F0.10471203643078439
sg216
F0.081056329657945903
sg217
F0.077413351407705749
sg218
F0.27530993015387073
sg219
F0.27530993015387079
sg220
F0.16852803962615201
sg221
F0.084360103854409008
sg222
F0.17657708267586716
sg223
F0.11111111111111112
sg224
F0.069660428841235036
sg225
F0.11111111111111113
sg226
F0.27530993015387073
sg227
F0.073798730451706096
sg228
F0.077524265805705858
sg229
F0.11111111111111112
sg230
F0.19247401813686663
sg231
F0.27530993015387079
sg232
F0.18497797702678515
sg233
F0.064439866417672423
sg234
F0.20304532483272528
sg235
F0.099481188368322052
sg236
F0.11111111111111112
sg237
F0.06667074885589136
sg238
F0.10050252723668149
sg239
F0.089118571463076127
sg240
F0.071371317334147574
sg241
F0.081942144286265672
sg242
F0.18607089681592526
sg243
F0.24386989935177064
sg244
F0.068604291742425133
sg245
F0.2720319931908961
sg246
F0.070916227906506091
sg247
F0.089040724818010841
sg248
F0.20444259620501104
sg249
F0.17349119460596865
sg250
F0.06667074885589136
sg251
F0.081970414902553787
sg252
F0.099367432636663561
sg253
F0.073798730451706096
sg254
F0.07143175308519395
sg255
F0.089118571463076127
sg256
F0.10513519003002164
sg257
F0.1617588374339172
sg258
F0.075164132155970412
sg259
F0.10512920050447727
sg260
F0.068947008100480947
sg261
F0.10309276068274746
sg262
F0.10989010821521109
sg263
F0.19839713860890595
sg264
F0.26570482325241856
sg265
F0.18698937929620449
sg266
F0.10638299717184034
sg267
F0.070540963689116026
sg268
F0.084300548271408898
sg269
F0.075164132155970412
sg270
F0.1111111111111111
sg271
F0.16730207127630217
sg272
F0.17917612806386585
sg273
F0.10204076599283833
sg274
F0.10416665752171925
sg275
F0.17840992922258611
sg276
F0.24401703845344241
sg277
F0.088622873800316027
sg278
F0.21370132822998197
sg279
F0.11111111111111112
sg280
F0.066813496517082627
sg281
F0.079650090764614059
sg282
F0.073137653275785197
sg283
F0.069085255699764592
sg284
F0.11111111111111112
sg285
F0.075252962036950477
sg286
F0.11111111111111113
sg287
F0.099493054771841116
sg288
F0.18455423986566852
sg289
F0.070540963689116026
sg290
F0.073170417181033703
sg291
F0.10526315479987429
sg292
F0.083539384788423182
sg293
F0.077400408331314091
sg294
F0.25966525128627277
sg295
F0.089118571463076127
sg296
F0.2538942873488903
sg297
F0.094203183481432112
sg298
F0.07532931128012485
sg299
F0.15177229443276566
sg300
F0.10152284944413253
sg301
F0.1928208481196369
sg302
F0.11111111111111112
sg303
F0.070969527664102486
sg304
F0.084280232956160578
sg305
F0.088622873800316027
sg306
F0.15094183297365515
sg307
F0.11111111111111113
sg308
F0.084367652088891174
sg309
F0.070770375061577864
sg310
F0.14112337696271041
sg311
F0.075252962036950477
sg312
F0.079668682393725695
sg313
F0.11111111111111112
sg314
F0.073014747225548238
sg315
F0.19031794994229553
sg316
F0.069085255699764592
sg317
F0.099496837378918734
sg318
F0.25249145532184125
sg319
F0.07618948323714729
sg320
F0.27530993015387073
sg321
F0.089118571463076127
sg322
F0.078793372282404142
sg323
F0.094172778959000142
sg324
F0.084278019103802504
sg325
F0.10526315479987429
sg326
F0.10050252723668149
sg327
F0.20274163917522997
sg328
F0.082051133030788342
sg329
F0.066813496517082627
sg330
F0.11111111111111112
sg331
F0.10416665752171925
sg332
F0.11111111111111113
sg333
F0.27530993015387079
sg334
F0.089103779004108513
sg335
F0.077449974159133017
sg336
F0.081970414902553787
sg337
F0.06213427902050285
sg338
F0.10471203643078439
sg339
F0.19053799826176226
sg340
F0.27530993015387073
sg341
F0.1111111111111111
sg342
F0.064439866417672423
sg343
F0.10513326779538268
sg344
F0.076846303285381071
sg345
F0.07618948323714729
sg346
F0.068876968299875635
sg347
F0.10513519003002164
sg348
F0.089163729407019318
sg349
F0.067025554672499529
sg350
F0.14733837034590846
sg351
F0.089040724818010841
sg352
F0.18455423986566852
sg353
F0.073241689744694569
sg354
F0.17262940383831352
sg355
F0.066747834289075395
sg356
F0.25909964244465961
sg357
F0.17284761309226393
sg358
F0.10752688614540465
sg359
F0.068876968299875635
sg360
F0.27530993015387079
sg361
F0.11111111111111113
sg362
F0.16137793521204771
sg363
F0.17941526202663324
sg364
F0.099493054771841116
sg365
F0.073137653275785197
sg366
F0.10512793008263074
sg367
F0.089118571463076127
sg368
F0.099367432636663561
sg369
F0.10512920050447727
sg370
F0.10152284944413253
sg371
F0.072955578621677425
sg372
F0.18428769854943294
sg373
F0.27530993015387079
sg374
F0.066813496517082627
sg375
F0.10471203643078439
sg376
F0.24837407286682911
sg377
F0.17408852264854099
sg378
F0.22948684137686751
sg379
F0.079688048257864935
sg380
F0.073798730451706096
sg381
F0.11111111111111112
sg382
F0.066452717202333408
sg383
F0.077196833901824774
sg384
F0.19090506632488646
sg385
F0.11111111111111113
sg386
F0.16742917315556916
sg387
F0.099496837378918734
sg388
F0.070871932935646031
sg389
F0.27530993015387079
sg390
F0.24383900780233467
sg391
F0.10512892004945044
sg392
F0.16305990619492933
sg393
F0.25910783680368393
sg394
F0.0786075352730813
sg395
F0.079688048257864935
sg396
F0.084300548271408898
sg397
F0.082036033331212441
sg398
F0.27530993015387073
sg399
F0.27530993015387073
sg400
F0.26883119003665956
sg401
F0.066813496517082627
sg402
F0.099516022199418436
sg403
F0.077400450852831051
sg404
F0.073093928866297037
sg405
F0.099496932302927332
sg406
F0.064775778045715937
sg407
F0.10514972564232218
sg408
F0.18668248271067434
sg409
F0.06675578186618733
sg410
F0.26265032384889453
sg411
F0.1111111111111111
sg412
F0.1617588374339172
sg413
L3L
sg414
F0.089162127054003296
sg415
F0.082036033331212441
sg416
F0.18607089681592526
sg417
F0.10509566935567255
sg418
F0.073798730451706096
sg419
F0.089118571463076127
sg420
F0.09959050356242434
sg421
F0.27530993015387073
sg422
F0.25914861633379993
sg423
F0.19815359238634447
sg424
F0.070969527664102486
sg425
F0.26570482325241856
sg426
F0.10416665752171925
sg427
F0.27530993015387073
sg428
F0.084367652088891174
sg429
F0.06213427902050285
sg430
F0.07143175308519395
sg431
F0.17284761309226393
sg432
F0.09959050356242434
sg433
F0.10101011111111112
sg434
F0.079688048257864935
sg435
F0.17294437230846732
sg436
F0.25531279519428973
sg437
F0.19646113349263444
sg438
F0.089163729407019318
sg439
F0.25674729347420244
sg440
F0.064311444903883824
sg441
F0.077449974159133017
sg442
F0.074961877876747671
sg443
F0.10509566935567255
sg444
F0.22956449352487823
sg445
F0.15094183297365515
sg446
F0.16686638239673918
sg447
F0.16986165164013242
sg448
F0.075252962036950477
sg449
F0.11111111111111113
sg450
F0.18430343540797928
sg451
F0.22942131294268764
sg452
F0.1554056728143309
sg453
F0.064775778045715937
sg454
F0.077449974159133017
sg455
F0.15361301822576579
sg456
F0.077449974159133017
sg457
F0.25920642361274288
sg458
F0.073170417181033703
sg459
F0.080805555831330006
sg460
F0.24973151074049832
sg461
F0.23019264172678022
sg462
F0.099512116030760808
sg463
F0.070770375061577864
sg464
F0.10638299717184034
sg465
F0.22958958993339837
sg466
F0.068758266004441917
sg467
F0.11111111111111113
sg468
F0.10416665752171925
sg469
F0.10512793008263074
sg470
F0.068758266004441917
sg471
F0.20290359387088069
sg472
F0.11111111111111113
sg473
F0.081943493629597713
sg474
F0.11111111111111112
sg475
F0.070969527664102486
sg476
F0.071137444709940836
sg477
F0.16186264243592419
sg478
F0.079758658804086932
sg479
F0.068817614652505882
sg480
F0.084300548271408898
sg481
F0.10256406821559212
sg482
F0.15236564783401998
sg483
F0.18471224832860794
sg484
F0.19967139944113771
sg485
F0.25911489924179953
sg486
F0.15900877262251828
sg487
F0.25110385479191821
sg488
F0.077449974159133017
sg489
F0.16225808087729282
sg490
F0.10512892004945044
sg491
F0.25819802252450841
sg492
F0.07618948323714729
sg493
F0.1111111111111111
sg494
F0.06213427902050285
sg495
F0.079656419538074702
sg496
F0.081056329657945903
sg497
F0.17974905243998301
sg498
F0.075252962036950477
sg499
F0.064103122692611231
sg500
F0.10509566935567255
sg501
F0.2720319931908961
sg502
F0.081942144286265672
sg503
F0.070871932935646031
sg504
F0.079688048257864935
sg505
F0.11111111111111112
sg506
F0.10989010821521109
sg507
F0.10513181399821088
sg508
F0.079783620296459148
sg509
F0.07518976918070043
sg510
F0.066813496517082627
sg511
F0.064775778045715937
sg512
F0.21370132822998197
sg513
F0.089151137598264513
sg514
F0.088622873800316027
sg515
F0.10752688614540465
sg516
F0.27530993015387073
sg517
F0.079668682393725695
sg518
F0.09388816960049276
sg519
F0.073093928866297037
sg520
F0.25910344998504492
sg521
F0.22948684137686751
sg522
F0.10869565276295959
sg523
F0.099367432636663561
sg524
F0.099508237932404695
sg525
F0.085036310671266296
sg526
F0.25910783680368393
sg527
F0.11111111111111112
sg528
F0.27530993015387079
sg529
F0.064775778045715937
sg530
F0.077561657415095353
sg531
F0.17247832922780215
sg532
F0.070969527664102486
sg533
F0.11111111111111113
sg534
F0.21603572121214357
sg535
F0.064703638455763726
sg536
F0.21584529659652651
sg537
F0.094172778959000142
sg538
F0.068876968299875635
sg539
F0.094202421283994614
sg540
F0.17869245137261169
sg541
F0.27530993015387073
sg542
F0.064828219675248419
sg543
F0.079650090764614059
sg544
F0.20403426940324143
sg545
F0.082051133030788342
sg546
F0.074948102040727965
sg547
F0.21575040699422995
sg548
F0.094133127153920776
sg549
F0.27530993015387073
sg550
F0.089151137598264513
sg551
F0.27530993015387073
sg552
F0.084300548271408898
sg553
F0.24327891989446571
sg554
F0.081970414902553787
sg555
F0.11111111111111112
sg556
F0.18455423986566852
sg557
F0.077449974159133017
sg558
F0.09417006886063764
sg559
F0.1599522419152051
sg560
F0.099367432636663561
sg561
F0.25895275649214683
sg562
F0.27530993015387073
sg563
F0.077524265805705858
sg564
F0.10509566935567255
sg565
F0.068876968299875635
sg566
F0.16440686272632626
sg567
F0.16791518916102832
sg568
F0.16636180199745054
sg569
F0.27530993015387079
sg570
F0.075252962036950477
sg571
F0.06675578186618733
sg572
F0.088622873800316027
sg573
F0.078793372282404142
sg574
F0.06213427902050285
sg575
F0.27530993015387073
sg576
F0.16695414111552262
sg577
F0.084300548271408898
sg578
F0.15706326940774962
sg579
F0.099516022199418436
sg580
F0.077196833901824774
sg581
F0.094172778959000142
sg582
F0.10752688614540465
sg583
F0.10309276068274746
sg584
F0.15365522866854156
sg585
F0.07532931128012485
sg586
F0.1111111111111111
sg587
F0.068375529226324255
sg588
F0.082885656924500936
sg589
F0.26265032384889453
sg590
F0.10526315479987429
sg591
F0.10204076599283833
sg592
F0.06501238765769958
sg593
F0.1855186998514359
sg594
F0.19053799826176226
sg595
F0.15630831766404413
sg596
F0.25674729347420244
sg597
F0.17941526202663324
sg598
F0.11111111111111113
sg599
F0.083539384788423182
sg600
F0.11111111111111113
sg601
F0.11111111111111112
sg602
F0.11111111111111113
sg603
F0.073046435657408704
sg604
F0.22821706963570226
sg605
F0.24973151074049832
sg606
F0.066876295781049089
sg607
F0.15589331431470532
sg608
F0.070969527664102486
sg609
F0.070916227906506091
sg610
F0.2158602860187091
sg611
F0.25895275649214683
sg612
F0.19665149098553208
sg613
F0.22950025801960761
sg614
F0.10638299717184034
sg615
F0.064605859326945111
sg616
F0.1928208481196369
sg617
F0.07143175308519395
sg618
F0.06675578186618733
sg619
F0.24703129520527453
sg620
F0.064103122692611231
sg621
F0.094197705612611163
sg622
F0.083539384788423182
sg623
F0.094172778959000142
sg624
F0.25910783680368393
sg625
F0.14112337696271041
sg626
F0.0786075352730813
sg627
F0.081970414902553787
sg628
F0.19696527710368406
sg629
F0.10204076599283833
sg630
F0.15361301822576579
sg631
F0.1111111111111111
sg632
F0.10101011111111112
sg633
F0.2158602860187091
sg634
L0L
sg635
F0.16671053642457836
sg636
F0.10256406821559212
sg637
F0.075382032994842488
sg638
F0.15780673275492077
sg639
F0.21597357819325574
sg640
F0.11111111111111113
sg641
F0.094133127153920776
sg642
F0.17308799260674124
sg643
L3L
sg644
F0.21642685660459157
sg645
F0.099496932302927332
sg646
F0.064605859326945111
sg647
F0.27530993015387079
sg648
F0.1111111111111111
sg649
F0.11111111111111112
sg650
F0.11111111111111112
sg651
F0.20290359387088069
sg652
F0.21633852689099636
sg653
F0.068876968299875635
sg654
F0.10989010821521109
sg655
F0.11111111111111113
sg656
F0.1599522419152051
sg657
F0.10869565276295959
sg658
F0.19140667332490766
sg659
F0.1716368747991168
sg660
F0.081056329657945903
sg661
F0.16730207127630217
sg662
F0.079688048257864935
sg663
F0.25912031877307828
sg664
F0.084278019103802504
sg665
F0.17884618549376918
sg666
F0.20290359387088069
sg667
F0.24391758026813032
sg668
F0.077400408331314091
sg669
F0.14985213310404766
sg670
F0.077400450852831051
sg671
F0.11111111111111112
sg672
F0.27530993015387073
sg673
F0.079480502250250995
sg674
F0.10362692829907269
sg675
F0.10050252723668149
sg676
F0.11111111111111113
sg677
F0.11111111111111113
sg678
F0.081973440227795721
sg679
I01
sg680
F0.09388816960049276
sa(dp682
g3
F0.13190832516408771
sg4
F0.15559082465938401
sg5
F0.14971634833670755
sg6
F0.10638299717184034
sg7
F0.093842508911098022
sg8
F0.16799264404801759
sg9
F0.1111111111111111
sg10
F0.091367377956966367
sg11
F0.13345097981680806
sg12
F0.10863320801368354
sg13
F0.11111111111111112
sg14
F0.096882797915508023
sg15
F0.10190786997699461
sg16
F0.09388816960049276
sg17
F0.15877987458221809
sg18
F0.14319693133794581
sg19
F0.10152284944413253
sg20
F0.15776951748171933
sg21
F0.092674740878142509
sg22
F0.10362692829907269
sg23
F0.10152284944413253
sg24
F0.075519787855672441
sg25
F0.15721369297070964
sg26
F0.11111111111111112
sg27
F0.15066153868455112
sg28
F0.094884801388271101
sg29
F0.10256406821559212
sg30
F0.10525407097839451
sg31
F0.085288176661563159
sg32
F0.15965639778179616
sg33
F0.095864287082099223
sg34
F0.093842508911098022
sg35
F0.096998322285959088
sg36
F0.14497818805660675
sg37
F0.14567103578815843
sg38
F0.14513677255045476
sg39
F0.081056329657945903
sg40
F0.10786064290156334
sg41
F0.11540907051998039
sg42
F0.14923716602905324
sg43
F0.092812015735291784
sg44
F0.081286683548102673
sg45
F0.10083311106534644
sg46
F0.10613008285021291
sg47
F0.10362692829907269
sg48
F0.091152282188890252
sg49
F0.091367377956966367
sg50
F0.14278285347217265
sg51
F0.09557875421232663
sg52
F0.1591277630792865
sg53
F0.15373329748783926
sg54
F0.10863320801368354
sg55
F0.10416133154080939
sg56
F0.15354763072427297
sg57
F0.10779970112703435
sg58
F0.15626897722826505
sg59
F0.10301507432915429
sg60
F0.1111111111111111
sg61
F0.14131378573719197
sg62
F0.085288176661563159
sg63
F0.10752688614540465
sg64
F0.1375795003203735
sg65
F0.10309276068274746
sg66
F0.10205339434543657
sg67
F0.093530178066687009
sg68
F0.10359003490321596
sg69
F0.13723763106784082
sg70
F0.064439866417672423
sg71
F0.095220569708256611
sg72
F0.10863320801368354
sg73
F0.089916393640368131
sg74
F0.068644191239691676
sg75
F0.087084338235291381
sg76
F0.10674185103748413
sg77
F0.10061353827129164
sg78
F0.07738011086139486
sg79
F0.1551643513035644
sg80
F0.13723763106784082
sg81
F0.10989010821521109
sg82
F0.092123624172988652
sg83
F0.10309276068274746
sg84
F0.092872711983306225
sg85
F0.10952069770797201
sg86
F0.10176265779184018
sg87
F0.17469894165639716
sg88
F0.095536826056674157
sg89
F0.10869565276295959
sg90
F0.1599485013085031
sg91
F0.099418684870121843
sg92
F0.10416133154080939
sg93
F0.09657012286260136
sg94
F0.095625653098319482
sg95
F0.11111111111111113
sg96
F0.16173116931693449
sg97
F0.11111111111111112
sg98
F0.094525211434692585
sg99
F0.11111111111111112
sg100
F0.14593879871874763
sg101
F0.069085255699764592
sg102
F0.070282578806796087
sg103
F0.094884801388271101
sg104
F0.099832552092404631
sg105
F0.089916393640368131
sg106
F0.10613008285021291
sg107
F0.0786075352730813
sg108
F0.11111111111111112
sg109
F0.15963086202630433
sg110
F0.094684571685874477
sg111
F0.06675578186618733
sg112
F0.096891214371711165
sg113
F0.07143175308519395
sg114
F0.10204076599283833
sg115
F0.092434137219659346
sg116
F0.088583407912125336
sg117
F0.11111111111111113
sg118
F0.13504213907861107
sg119
F0.098350630825291649
sg120
F0.11111111111111113
sg121
F0.083539384788423182
sg122
F0.10101011111111112
sg123
F0.10526721485282609
sg124
F0.091367377956966367
sg125
F0.15538308368523904
sg126
F0.096156289745516432
sg127
F0.15008521691720922
sg128
F0.097892874194311877
sg129
F0.097875360415457038
sg130
F0.10863320801368354
sg131
F0.085458240445160552
sg132
F0.14674962861622182
sg133
F0.090662206268938145
sg134
F0.16014157023712003
sg135
F0.10063978325003964
sg136
F0.10662061109009147
sg137
F0.10888895096467766
sg138
F0.094239815792588208
sg139
F0.08516084136808337
sg140
F0.17420966726259268
sg141
F0.10954329274152391
sg142
F0.0786075352730813
sg143
F0.15526869441440364
sg144
F0.10869565276295959
sg145
F0.10748004662327881
sg146
F0.11111111111111113
sg147
F0.091152282188890252
sg148
F0.10176265779184018
sg149
F0.11111111111111112
sg150
F0.10972872127080344
sg151
F0.069085255699764592
sg152
F0.13932778207790791
sg153
F0.07618948323714729
sg154
F0.068644191239691676
sg155
F0.10050252723668149
sg156
F0.10952069770797201
sg157
F0.086456691145863573
sg158
F0.10526315479987429
sg159
F0.11111111111111113
sg160
F0.14061399930440172
sg161
F0.1591277630792865
sg162
F0.11111111111111113
sg163
F0.1031106861952491
sg164
F0.091367377956966367
sg165
F0.10061353827129164
sg166
F0.17308989091787697
sg167
F0.10362692829907269
sg168
F0.10429685030334906
sg169
F0.14360060341257352
sg170
F0.089518384738010354
sg171
F0.095536826056674157
sg172
F0.064439866417672423
sg173
F0.089894768099936975
sg174
F0.10627964460321319
sg175
F0.10471203643078439
sg176
F0.10613008285021291
sg177
F0.091475560417336427
sg178
F0.10171692727348047
sg179
F0.14823759155985491
sg180
F0.083338042305325183
sg181
F0.11111111111111113
sg182
F0.1591277630792865
sg183
F0.099308940666500395
sg184
F0.1031106861952491
sg185
F0.10359003490321596
sg186
F0.16036296166615327
sg187
F0.10748004662327881
sg188
F0.071973333194670697
sg189
F0.14497818805660675
sg190
F0.14971634833670755
sg191
F0.09388816960049276
sg192
F0.14323520545738472
sg193
L2444L
sg194
F0.10101011111111112
sg195
F0.088392182022877103
sg196
F0.10613008285021291
sg197
F0.090046401756006866
sg198
F0.1475695190583235
sg199
F0.10256406821559212
sg200
F0.15721369297070964
sg201
F0.10605694644590982
sg202
F0.1591277630792865
sg203
F0.11111111111111112
sg204
F0.090046401756006866
sg205
F0.1736339123300441
sg206
F0.096998322285959088
sg207
F0.15029427962640968
sg208
F0.094684571685874477
sg209
F0.086857474795109704
sg210
F0.16135873428486466
sg211
F0.14146484212008259
sg212
F0.088006941924402199
sg213
F0.14355897224666289
sg214
F0.14319693133794581
sg215
F0.10471203643078439
sg216
F0.081056329657945903
sg217
F0.095220569708256611
sg218
F0.1591277630792865
sg219
F0.15912776307928653
sg220
F0.15396261715678861
sg221
F0.10205339434543657
sg222
F0.10337487547977227
sg223
F0.11111111111111112
sg224
F0.070282578806796087
sg225
F0.11111111111111113
sg226
F0.1591277630792865
sg227
F0.073798730451706096
sg228
F0.098661749775300539
sg229
F0.11111111111111112
sg230
F0.11239502719680125
sg231
F0.15912776307928653
sg232
F0.14988561718687227
sg233
F0.064439866417672423
sg234
F0.15723782243165182
sg235
F0.10779970112703435
sg236
F0.11111111111111112
sg237
F0.09024049691099327
sg238
F0.10050252723668149
sg239
F0.10100106590711985
sg240
F0.071973333194670697
sg241
F0.099645212689892029
sg242
F0.10754804800512072
sg243
F0.15721369297070964
sg244
F0.10063978325003964
sg245
F0.15723313190437196
sg246
F0.090993415293658481
sg247
F0.10393169093887897
sg248
F0.17432341644576052
sg249
F0.14677794218218446
sg250
F0.09024049691099327
sg251
F0.096998322285959088
sg252
F0.099367432636663561
sg253
F0.073798730451706096
sg254
F0.07143175308519395
sg255
F0.10100106590711985
sg256
F0.11091093896732623
sg257
F0.13932778207790791
sg258
F0.10406896553009438
sg259
F0.10925872955736497
sg260
F0.093530178066687009
sg261
F0.10309276068274746
sg262
F0.10989010821521109
sg263
F0.17461866035388302
sg264
F0.15357605931578164
sg265
F0.10928505784272821
sg266
F0.10638299717184034
sg267
F0.094135129500929018
sg268
F0.098350630825291649
sg269
F0.10406896553009438
sg270
F0.1111111111111111
sg271
F0.14131378573719197
sg272
F0.14838597934761463
sg273
F0.10204076599283833
sg274
F0.10416665752171925
sg275
F0.14731606607694839
sg276
F0.16151235559836066
sg277
F0.088622873800316027
sg278
F0.12351829921028842
sg279
F0.11111111111111112
sg280
F0.086857474795109704
sg281
F0.098422336235127167
sg282
F0.073718278949500962
sg283
F0.069085255699764592
sg284
F0.11111111111111112
sg285
F0.092812015735291784
sg286
F0.11111111111111113
sg287
F0.10653497091273315
sg288
F0.14665823359322575
sg289
F0.094135129500929018
sg290
F0.096190053602670023
sg291
F0.10526315479987429
sg292
F0.083539384788423182
sg293
F0.10503912160566328
sg294
F0.15008521691720922
sg295
F0.10100106590711985
sg296
F0.14674962861622182
sg297
F0.10972872127080344
sg298
F0.097448256838253131
sg299
F0.13925153903046819
sg300
F0.10152284944413253
sg301
F0.11144948610890951
sg302
F0.11111111111111112
sg303
F0.089894768099936975
sg304
F0.10083311106534644
sg305
F0.088622873800316027
sg306
F0.13504213907861107
sg307
F0.11111111111111113
sg308
F0.099443082765100804
sg309
F0.10187345506183361
sg310
F0.081568606267561794
sg311
F0.092812015735291784
sg312
F0.10592911983093958
sg313
F0.11111111111111112
sg314
F0.094525211434692585
sg315
F0.15041363311837713
sg316
F0.069085255699764592
sg317
F0.1073134626142522
sg318
F0.14593879871874763
sg319
F0.07618948323714729
sg320
F0.1591277630792865
sg321
F0.10100106590711985
sg322
F0.079301610682770501
sg323
F0.10359003490321596
sg324
F0.099190523033155176
sg325
F0.10526315479987429
sg326
F0.10050252723668149
sg327
F0.15305758171060135
sg328
F0.098178790074599356
sg329
F0.086857474795109704
sg330
F0.11111111111111112
sg331
F0.10416665752171925
sg332
F0.11111111111111113
sg333
F0.1591277630792865
sg334
F0.10171692727348047
sg335
F0.094230814826456663
sg336
F0.096998322285959088
sg337
F0.06213427902050285
sg338
F0.10471203643078439
sg339
F0.14823759155985491
sg340
F0.1591277630792865
sg341
F0.1111111111111111
sg342
F0.064439866417672423
sg343
F0.10954329274152391
sg344
F0.07738011086139486
sg345
F0.07618948323714729
sg346
F0.088392182022877103
sg347
F0.11091093896732623
sg348
F0.10412441326370238
sg349
F0.088583407912125336
sg350
F0.08516084136808337
sg351
F0.10393169093887897
sg352
F0.14665823359322575
sg353
F0.092872711983306225
sg354
F0.14559749013577095
sg355
F0.088006941924402199
sg356
F0.15892754339307213
sg357
F0.099905056129263065
sg358
F0.10752688614540465
sg359
F0.088392182022877103
sg360
F0.15912776307928653
sg361
F0.11111111111111113
sg362
F0.14181886503602892
sg363
F0.10370112437508386
sg364
F0.10653497091273315
sg365
F0.073718278949500962
sg366
F0.10884827824501624
sg367
F0.10100106590711985
sg368
F0.099367432636663561
sg369
F0.10925872955736497
sg370
F0.10152284944413253
sg371
F0.10301507432915429
sg372
F0.15659944824109392
sg373
F0.1591277630792865
sg374
F0.086857474795109704
sg375
F0.10471203643078439
sg376
F0.14355897224666289
sg377
F0.15539106102200057
sg378
F0.15559082465938401
sg379
F0.095625653098319482
sg380
F0.073798730451706096
sg381
F0.11111111111111112
sg382
F0.099308940666500395
sg383
F0.098175874403687038
sg384
F0.15127696768247328
sg385
F0.11111111111111113
sg386
F0.14938713185162281
sg387
F0.1073134626142522
sg388
F0.093143113332614602
sg389
F0.15912776307928653
sg390
F0.15819622667848002
sg391
F0.10863320801368354
sg392
F0.1523867632678105
sg393
F0.15839996493360023
sg394
F0.0786075352730813
sg395
F0.095625653098319482
sg396
F0.098350630825291649
sg397
F0.10096250553832951
sg398
F0.1591277630792865
sg399
F0.15912776307928653
sg400
F0.15538308368523904
sg401
F0.086857474795109704
sg402
F0.11045021946005219
sg403
F0.097162653122054105
sg404
F0.091367377956966367
sg405
F0.10613008285021291
sg406
F0.085288176661563159
sg407
F0.10525407097839451
sg408
F0.17456333154745673
sg409
F0.06675578186618733
sg410
F0.15181057393304179
sg411
F0.1111111111111111
sg412
F0.13932778207790791
sg413
L1L
sg414
F0.10190786997699461
sg415
F0.10096250553832951
sg416
F0.10754804800512072
sg417
F0.10509566935567255
sg418
F0.073798730451706096
sg419
F0.10100106590711985
sg420
F0.099788160790114683
sg421
F0.1591277630792865
sg422
F0.16065714498974926
sg423
F0.11561329202678375
sg424
F0.089894768099936975
sg425
F0.15357605931578164
sg426
F0.10416665752171925
sg427
F0.1591277630792865
sg428
F0.099443082765100804
sg429
F0.06213427902050285
sg430
F0.07143175308519395
sg431
F0.099905056129263065
sg432
F0.099788160790114683
sg433
F0.10101011111111112
sg434
F0.095625653098319482
sg435
F0.14319693133794581
sg436
F0.1475695190583235
sg437
F0.15179250485264337
sg438
F0.10412441326370238
sg439
F0.14839865189162163
sg440
F0.097875360415457038
sg441
F0.094230814826456663
sg442
F0.075519787855672441
sg443
F0.10509566935567255
sg444
F0.15973932159383331
sg445
F0.13504213907861107
sg446
F0.097855440915669528
sg447
F0.17283189808427385
sg448
F0.092812015735291784
sg449
F0.11111111111111113
sg450
F0.14892139252964304
sg451
F0.156961137097265
sg452
F0.1483004511260492
sg453
F0.085288176661563159
sg454
F0.094230814826456663
sg455
F0.088787556469401493
sg456
F0.094230814826456663
sg457
F0.16406002951977178
sg458
F0.096190053602670023
sg459
F0.081286683548102673
sg460
F0.14434356455045433
sg461
F0.17098812445648429
sg462
F0.10786064290156334
sg463
F0.10187345506183361
sg464
F0.10638299717184034
sg465
F0.15731638781941204
sg466
F0.091715706039537631
sg467
F0.11111111111111113
sg468
F0.10416665752171925
sg469
F0.10884827824501624
sg470
F0.091715706039537631
sg471
F0.15109448141679649
sg472
F0.11111111111111113
sg473
F0.097892874194311877
sg474
F0.11111111111111112
sg475
F0.089894768099936975
sg476
F0.091475560417336427
sg477
F0.14759922325060634
sg478
F0.099832552092404631
sg479
F0.089518384738010354
sg480
F0.098350630825291649
sg481
F0.10256406821559212
sg482
F0.14878431127698338
sg483
F0.15392425444319774
sg484
F0.11540907051998039
sg485
F0.1606005325573614
sg486
F0.17052479814756555
sg487
F0.14513677255045476
sg488
F0.094230814826456663
sg489
F0.095233512657502725
sg490
F0.10863320801368354
sg491
F0.14923716602905324
sg492
F0.07618948323714729
sg493
F0.1111111111111111
sg494
F0.06213427902050285
sg495
F0.09657012286260136
sg496
F0.081056329657945903
sg497
F0.15667371108978698
sg498
F0.092812015735291784
sg499
F0.089564203521035488
sg500
F0.10509566935567255
sg501
F0.15723313190437196
sg502
F0.099645212689892029
sg503
F0.093143113332614602
sg504
F0.095625653098319482
sg505
F0.11111111111111112
sg506
F0.10989010821521109
sg507
F0.10888895096467766
sg508
F0.096891214371711165
sg509
F0.095864287082099223
sg510
F0.086857474795109704
sg511
F0.085288176661563159
sg512
F0.12351829921028842
sg513
F0.10874185566279367
sg514
F0.088622873800316027
sg515
F0.10752688614540465
sg516
F0.15912776307928647
sg517
F0.10592911983093958
sg518
F0.09388816960049276
sg519
F0.091367377956966367
sg520
F0.15001762032462931
sg521
F0.15559082465938401
sg522
F0.10869565276295959
sg523
F0.099367432636663561
sg524
F0.10662061109009147
sg525
F0.085458240445160552
sg526
F0.15839996493360023
sg527
F0.11111111111111112
sg528
F0.1591277630792865
sg529
F0.085288176661563159
sg530
F0.09557875421232663
sg531
F0.15377563315000786
sg532
F0.089894768099936975
sg533
F0.11111111111111113
sg534
F0.15574996700807475
sg535
F0.086456691145863573
sg536
F0.16085502287906772
sg537
F0.10359003490321596
sg538
F0.088392182022877103
sg539
F0.10605694644590982
sg540
F0.14497818805660675
sg541
F0.15912776307928653
sg542
F0.090662206268938145
sg543
F0.098422336235127167
sg544
F0.11894316268437993
sg545
F0.098178790074599356
sg546
F0.096882797915508023
sg547
F0.15524340557920863
sg548
F0.10594001092484426
sg549
F0.1591277630792865
sg550
F0.10874185566279367
sg551
F0.1591277630792865
sg552
F0.098350630825291649
sg553
F0.14061399930440172
sg554
F0.096998322285959088
sg555
F0.11111111111111112
sg556
F0.14665823359322575
sg557
F0.094230814826456663
sg558
F0.10526721485282609
sg559
F0.092451596065778963
sg560
F0.099367432636663561
sg561
F0.14967339848867839
sg562
F0.1591277630792865
sg563
F0.098661749775300539
sg564
F0.10509566935567255
sg565
F0.088392182022877103
sg566
F0.17179808545840214
sg567
F0.1450612266522171
sg568
F0.096156289745516432
sg569
F0.15912776307928653
sg570
F0.092812015735291784
sg571
F0.06675578186618733
sg572
F0.088622873800316027
sg573
F0.079301610682770501
sg574
F0.06213427902050285
sg575
F0.1591277630792865
sg576
F0.14376532999009559
sg577
F0.098350630825291649
sg578
F0.14129890174748486
sg579
F0.11045021946005219
sg580
F0.098175874403687038
sg581
F0.10359003490321596
sg582
F0.10752688614540465
sg583
F0.10309276068274746
sg584
F0.16900424208017181
sg585
F0.097448256838253131
sg586
F0.1111111111111111
sg587
F0.092674740878142509
sg588
F0.083338042305325183
sg589
F0.15181057393304179
sg590
F0.10526315479987429
sg591
F0.10204076599283833
sg592
F0.087084338235291381
sg593
F0.15781171755636256
sg594
F0.14823759155985491
sg595
F0.13723763106784082
sg596
F0.14839865189162163
sg597
F0.10370112437508386
sg598
F0.11111111111111113
sg599
F0.083539384788423182
sg600
F0.11111111111111113
sg601
F0.11111111111111112
sg602
F0.11111111111111113
sg603
F0.092434137219659346
sg604
F0.13190832516408771
sg605
F0.14434356455045433
sg606
F0.092123624172988652
sg607
F0.13975726961838802
sg608
F0.089894768099936975
sg609
F0.090993415293658481
sg610
F0.15354763072427297
sg611
F0.14967339848867839
sg612
F0.14971634833670755
sg613
F0.16143562516097426
sg614
F0.10638299717184034
sg615
F0.088714641833821939
sg616
F0.11144948610890951
sg617
F0.07143175308519395
sg618
F0.06675578186618733
sg619
F0.14278285347217265
sg620
F0.089564203521035488
sg621
F0.10429685030334906
sg622
F0.083539384788423182
sg623
F0.10359003490321596
sg624
F0.15839996493360023
sg625
F0.081568606267561794
sg626
F0.0786075352730813
sg627
F0.096998322285959088
sg628
F0.15255968992197116
sg629
F0.10204076599283833
sg630
F0.088787556469401493
sg631
F0.1111111111111111
sg632
F0.10101011111111112
sg633
F0.15354763072427297
sg634
L1L
sg635
F0.15211833753519821
sg636
F0.10256406821559212
sg637
F0.094239815792588208
sg638
F0.092699200049595004
sg639
F0.15876608713836418
sg640
F0.11111111111111113
sg641
F0.10594001092484426
sg642
F0.15103642860444408
sg643
L0L
sg644
F0.12595272012302861
sg645
F0.10613008285021291
sg646
F0.088714641833821939
sg647
F0.15912776307928653
sg648
F0.1111111111111111
sg649
F0.11111111111111112
sg650
F0.11111111111111112
sg651
F0.15109448141679649
sg652
F0.16134184534386192
sg653
F0.088392182022877103
sg654
F0.10989010821521109
sg655
F0.11111111111111113
sg656
F0.092451596065778963
sg657
F0.10869565276295959
sg658
F0.15880594824759164
sg659
F0.10056786157660419
sg660
F0.081056329657945903
sg661
F0.14131378573719197
sg662
F0.095625653098319482
sg663
F0.15903056157961495
sg664
F0.099190523033155176
sg665
F0.152548490781093
sg666
F0.15109448141679649
sg667
F0.15841726806502648
sg668
F0.10503912160566328
sg669
F0.1461331728928989
sg670
F0.097162653122054105
sg671
F0.11111111111111112
sg672
F0.15912776307928647
sg673
F0.099418684870121843
sg674
F0.10362692829907269
sg675
F0.10050252723668149
sg676
F0.11111111111111113
sg677
F0.11111111111111113
sg678
F0.10674185103748413
sg679
I01
sg680
F0.09388816960049276
sa(dp683
g3
F0.058189647330363178
sg4
F0.05851340738006678
sg5
F0.050141213914036038
sg6
F0.10638299717184034
sg7
F0.07521105210708745
sg8
F0.062270548440203251
sg9
F0.1111111111111111
sg10
F0.073093928866297037
sg11
F0.058568503687325586
sg12
F0.10512892004945044
sg13
F0.11111111111111112
sg14
F0.074948102040727965
sg15
F0.089162127054003296
sg16
F0.09388816960049276
sg17
F0.050108391889484724
sg18
F0.044096491329351443
sg19
F0.10152284944413253
sg20
F0.04853380743987637
sg21
F0.068375529226324255
sg22
F0.10362692829907269
sg23
F0.10152284944413253
sg24
F0.074961877876747671
sg25
F0.062180727587217717
sg26
F0.11111111111111112
sg27
F0.040203156585302255
sg28
F0.071044026471919389
sg29
F0.10256406821559212
sg30
F0.10514972564232218
sg31
F0.064775778045715937
sg32
F0.050337787858258778
sg33
F0.07518976918070043
sg34
F0.07521105210708745
sg35
F0.081970414902553787
sg36
F0.045562107788731661
sg37
F0.039873030455748901
sg38
F0.064025205375569341
sg39
F0.081056329657945903
sg40
F0.099512116030760808
sg41
F0.050911215072504082
sg42
F0.065834040793186527
sg43
F0.075252962036950477
sg44
F0.080805555831330006
sg45
F0.084280232956160578
sg46
F0.099496932302927332
sg47
F0.10362692829907269
sg48
F0.066230712631619476
sg49
F0.073093928866297037
sg50
F0.062986804494964868
sg51
F0.077561657415095353
sg52
F0.070197149440983181
sg53
F0.051802656779080525
sg54
F0.10512892004945044
sg55
F0.094164257400360399
sg56
F0.055038976427620352
sg57
F0.099481188368322052
sg58
F0.050179781767480738
sg59
F0.072955578621677425
sg60
F0.1111111111111111
sg61
F0.042657845623675139
sg62
F0.064775778045715937
sg63
F0.10752688614540465
sg64
F0.038371999315783147
sg65
F0.10309276068274746
sg66
F0.084360103854409008
sg67
F0.068947008100480947
sg68
F0.094172778959000142
sg69
F0.039854713296389656
sg70
F0.064439866417672423
sg71
F0.077413351407705749
sg72
F0.10512892004945044
sg73
F0.089560891049789412
sg74
F0.068003100004047884
sg75
F0.06501238765769958
sg76
F0.081973440227795721
sg77
F0.081802859348119525
sg78
F0.076846303285381071
sg79
F0.048622418996587882
sg80
F0.039854713296389656
sg81
F0.10989010821521109
sg82
F0.066876295781049089
sg83
F0.10309276068274746
sg84
F0.073241689744694569
sg85
F0.10512548683428044
sg86
F0.084167724833933671
sg87
F0.04907798038553951
sg88
F0.072730683225121093
sg89
F0.10869565276295959
sg90
F0.066069137907646944
sg91
F0.079480502250250995
sg92
F0.094164257400360399
sg93
F0.079656419538074702
sg94
F0.079688048257864935
sg95
F0.11111111111111113
sg96
F0.058589519357977529
sg97
F0.11111111111111112
sg98
F0.073014747225548238
sg99
F0.11111111111111112
sg100
F0.064379008820686479
sg101
F0.069085255699764592
sg102
F0.069660428841235036
sg103
F0.071044026471919389
sg104
F0.079758658804086932
sg105
F0.089560891049789412
sg106
F0.099496932302927332
sg107
F0.0786075352730813
sg108
F0.11111111111111112
sg109
F0.051715077795914458
sg110
F0.094403527001310994
sg111
F0.06675578186618733
sg112
F0.079783620296459148
sg113
F0.07143175308519395
sg114
F0.10204076599283833
sg115
F0.073046435657408704
sg116
F0.067025554672499529
sg117
F0.11111111111111113
sg118
F0.038486393862457724
sg119
F0.084300548271408898
sg120
F0.11111111111111113
sg121
F0.083539384788423182
sg122
F0.10101011111111112
sg123
F0.09417006886063764
sg124
F0.073093928866297037
sg125
F0.068545232679597265
sg126
F0.042418100464299946
sg127
F0.066208147446717394
sg128
F0.081943493629597713
sg129
F0.064311444903883824
sg130
F0.10512892004945044
sg131
F0.085036310671266296
sg132
F0.064736695916783299
sg133
F0.064828219675248419
sg134
F0.062191268605816571
sg135
F0.068604291742425133
sg136
F0.099508237932404695
sg137
F0.10513181399821088
sg138
F0.075382032994842488
sg139
F0.037567600978948013
sg140
F0.046147231324427836
sg141
F0.10513326779538268
sg142
F0.0786075352730813
sg143
F0.045470826602132933
sg144
F0.10869565276295959
sg145
F0.084319105205434536
sg146
F0.11111111111111113
sg147
F0.066230712631619476
sg148
F0.084167724833933671
sg149
F0.11111111111111112
sg150
F0.094203183481432112
sg151
F0.069085255699764592
sg152
F0.041244459574713038
sg153
F0.07618948323714729
sg154
F0.068003100004047884
sg155
F0.10050252723668149
sg156
F0.10512548683428044
sg157
F0.064703638455763726
sg158
F0.10526315479987429
sg159
F0.11111111111111113
sg160
F0.062030042600091387
sg161
F0.070197149440983195
sg162
F0.11111111111111113
sg163
F0.089109540843304053
sg164
F0.073093928866297037
sg165
F0.081802859348119525
sg166
F0.05532312886214559
sg167
F0.10362692829907269
sg168
F0.094197705612611163
sg169
F0.038494517353689715
sg170
F0.068817614652505882
sg171
F0.072730683225121093
sg172
F0.064439866417672423
sg173
F0.070969527664102486
sg174
F0.046327121358133633
sg175
F0.10471203643078439
sg176
F0.099496932302927332
sg177
F0.071137444709940836
sg178
F0.089103779004108513
sg179
F0.04858242610679283
sg180
F0.082885656924500936
sg181
F0.11111111111111113
sg182
F0.070197149440983181
sg183
F0.066452717202333408
sg184
F0.089109540843304053
sg185
F0.094172778959000142
sg186
F0.05190680295345991
sg187
F0.084319105205434536
sg188
F0.071371317334147574
sg189
F0.045562107788731661
sg190
F0.050141213914036038
sg191
F0.09388816960049276
sg192
F0.041418481893237429
sg193
L11406L
sg194
F0.10101011111111112
sg195
F0.068876968299875635
sg196
F0.099496932302927332
sg197
F0.069066183602110573
sg198
F0.065098379954664026
sg199
F0.10256406821559212
sg200
F0.062180727587217717
sg201
F0.094202421283994614
sg202
F0.070197149440983181
sg203
F0.11111111111111112
sg204
F0.069066183602110573
sg205
F0.04471865145106628
sg206
F0.081970414902553787
sg207
F0.041056751130193463
sg208
F0.094403527001310994
sg209
F0.066813496517082627
sg210
F0.062184956196074836
sg211
F0.062191828565942277
sg212
F0.066747834289075395
sg213
F0.06332917922921974
sg214
F0.044096491329351443
sg215
F0.10471203643078439
sg216
F0.081056329657945903
sg217
F0.077413351407705749
sg218
F0.070197149440983181
sg219
F0.070197149440983181
sg220
F0.042970436903678105
sg221
F0.084360103854409008
sg222
F0.045022741655279225
sg223
F0.11111111111111112
sg224
F0.069660428841235036
sg225
F0.11111111111111113
sg226
F0.070197149440983181
sg227
F0.073798730451706096
sg228
F0.077524265805705858
sg229
F0.11111111111111112
sg230
F0.049076062774447565
sg231
F0.070197149440983195
sg232
F0.047164759692404537
sg233
F0.064439866417672423
sg234
F0.051771481699224117
sg235
F0.099481188368322052
sg236
F0.11111111111111112
sg237
F0.06667074885589136
sg238
F0.10050252723668149
sg239
F0.089118571463076127
sg240
F0.071371317334147574
sg241
F0.081942144286265672
sg242
F0.047443426915640539
sg243
F0.062180727587217717
sg244
F0.068604291742425133
sg245
F0.069361357463848722
sg246
F0.070916227906506091
sg247
F0.089040724818010841
sg248
F0.052127750967372682
sg249
F0.044235917344656858
sg250
F0.06667074885589136
sg251
F0.081970414902553787
sg252
F0.099367432636663561
sg253
F0.073798730451706096
sg254
F0.07143175308519395
sg255
F0.089118571463076127
sg256
F0.10513519003002164
sg257
F0.041244459574713038
sg258
F0.075164132155970412
sg259
F0.10512920050447727
sg260
F0.068947008100480947
sg261
F0.10309276068274746
sg262
F0.10989010821521109
sg263
F0.05058631041680578
sg264
F0.067748087308785412
sg265
F0.047677616986049734
sg266
F0.10638299717184034
sg267
F0.070540963689116026
sg268
F0.084300548271408898
sg269
F0.075164132155970412
sg270
F0.1111111111111111
sg271
F0.042657845623675139
sg272
F0.04568543325308419
sg273
F0.10204076599283833
sg274
F0.10416665752171925
sg275
F0.045490071703528895
sg276
F0.062218244379666471
sg277
F0.088622873800316027
sg278
F0.054488496165439652
sg279
F0.11111111111111112
sg280
F0.066813496517082627
sg281
F0.079650090764614059
sg282
F0.073137653275785197
sg283
F0.069085255699764592
sg284
F0.11111111111111112
sg285
F0.075252962036950477
sg286
F0.11111111111111113
sg287
F0.099493054771841116
sg288
F0.047056717309748829
sg289
F0.070540963689116026
sg290
F0.073170417181033703
sg291
F0.10526315479987429
sg292
F0.083539384788423182
sg293
F0.077400408331314091
sg294
F0.066208147446717394
sg295
F0.089118571463076127
sg296
F0.064736695916783299
sg297
F0.094203183481432112
sg298
F0.07532931128012485
sg299
F0.038698140772994417
sg300
F0.10152284944413253
sg301
F0.049164495749304413
sg302
F0.11111111111111112
sg303
F0.070969527664102486
sg304
F0.084280232956160578
sg305
F0.088622873800316027
sg306
F0.038486393862457724
sg307
F0.11111111111111113
sg308
F0.084367652088891174
sg309
F0.070770375061577864
sg310
F0.035982933041067082
sg311
F0.075252962036950477
sg312
F0.079668682393725695
sg313
F0.11111111111111112
sg314
F0.073014747225548238
sg315
F0.048526319286536793
sg316
F0.069085255699764592
sg317
F0.099496837378918734
sg318
F0.064379008820686479
sg319
F0.07618948323714729
sg320
F0.070197149440983181
sg321
F0.089118571463076127
sg322
F0.078793372282404142
sg323
F0.094172778959000142
sg324
F0.084278019103802504
sg325
F0.10526315479987429
sg326
F0.10050252723668149
sg327
F0.05169404944870426
sg328
F0.082051133030788342
sg329
F0.066813496517082627
sg330
F0.11111111111111112
sg331
F0.10416665752171925
sg332
F0.11111111111111113
sg333
F0.070197149440983181
sg334
F0.089103779004108513
sg335
F0.077449974159133017
sg336
F0.081970414902553787
sg337
F0.06213427902050285
sg338
F0.10471203643078439
sg339
F0.04858242610679283
sg340
F0.070197149440983181
sg341
F0.1111111111111111
sg342
F0.064439866417672423
sg343
F0.10513326779538268
sg344
F0.076846303285381071
sg345
F0.07618948323714729
sg346
F0.068876968299875635
sg347
F0.10513519003002164
sg348
F0.089163729407019318
sg349
F0.067025554672499529
sg350
F0.037567600978948013
sg351
F0.089040724818010841
sg352
F0.047056717309748829
sg353
F0.073241689744694569
sg354
F0.044016182243673985
sg355
F0.066747834289075395
sg356
F0.066063931332327089
sg357
F0.044071820148199985
sg358
F0.10752688614540465
sg359
F0.068876968299875635
sg360
F0.070197149440983195
sg361
F0.11111111111111113
sg362
F0.041147339030691857
sg363
F0.045746406435240805
sg364
F0.099493054771841116
sg365
F0.073137653275785197
sg366
F0.10512793008263074
sg367
F0.089118571463076127
sg368
F0.099367432636663561
sg369
F0.10512920050447727
sg370
F0.10152284944413253
sg371
F0.072955578621677425
sg372
F0.046988755937641666
sg373
F0.070197149440983181
sg374
F0.066813496517082627
sg375
F0.10471203643078439
sg376
F0.06332917922921974
sg377
F0.044388221062311731
sg378
F0.05851340738006678
sg379
F0.079688048257864935
sg380
F0.073798730451706096
sg381
F0.11111111111111112
sg382
F0.066452717202333408
sg383
F0.077196833901824774
sg384
F0.048676019286187922
sg385
F0.11111111111111113
sg386
F0.042690253425341239
sg387
F0.099496837378918734
sg388
F0.070871932935646031
sg389
F0.070197149440983181
sg390
F0.062172851014400281
sg391
F0.10512892004945044
sg392
F0.041576199582052102
sg393
F0.066066020689019317
sg394
F0.0786075352730813
sg395
F0.079688048257864935
sg396
F0.084300548271408898
sg397
F0.082036033331212441
sg398
F0.070197149440983181
sg399
F0.070197149440983181
sg400
F0.068545232679597265
sg401
F0.066813496517082627
sg402
F0.099516022199418436
sg403
F0.077400450852831051
sg404
F0.073093928866297037
sg405
F0.099496932302927332
sg406
F0.064775778045715937
sg407
F0.10514972564232218
sg408
F0.047599366029154183
sg409
F0.06675578186618733
sg410
F0.066969266323371884
sg411
F0.1111111111111111
sg412
F0.041244459574713038
sg413
L1L
sg414
F0.089162127054003296
sg415
F0.082036033331212441
sg416
F0.047443426915640539
sg417
F0.10509566935567255
sg418
F0.073798730451706096
sg419
F0.089118571463076127
sg420
F0.09959050356242434
sg421
F0.070197149440983181
sg422
F0.066076418449710642
sg423
F0.050524212218708175
sg424
F0.070969527664102486
sg425
F0.067748087308785412
sg426
F0.10416665752171925
sg427
F0.070197149440983195
sg428
F0.084367652088891174
sg429
F0.06213427902050285
sg430
F0.07143175308519395
sg431
F0.044071820148199985
sg432
F0.09959050356242434
sg433
F0.10101011111111112
sg434
F0.079688048257864935
sg435
F0.044096491329351443
sg436
F0.065098379954664026
sg437
F0.050092677512284453
sg438
F0.089163729407019318
sg439
F0.065464141153584759
sg440
F0.064311444903883824
sg441
F0.077449974159133017
sg442
F0.074961877876747671
sg443
F0.10509566935567255
sg444
F0.058533206736505819
sg445
F0.038486393862457724
sg446
F0.042546755851608567
sg447
F0.043310474626942756
sg448
F0.075252962036950477
sg449
F0.11111111111111113
sg450
F0.046992768443149507
sg451
F0.058496699267561771
sg452
F0.039624561425834023
sg453
F0.064775778045715937
sg454
F0.077449974159133017
sg455
F0.039167479322114632
sg456
F0.077449974159133017
sg457
F0.066091157860659111
sg458
F0.073170417181033703
sg459
F0.080805555831330006
sg460
F0.06367529195105856
sg461
F0.058693368824285781
sg462
F0.099512116030760808
sg463
F0.070770375061577864
sg464
F0.10638299717184034
sg465
F0.058539605693268243
sg466
F0.068758266004441917
sg467
F0.11111111111111113
sg468
F0.10416665752171925
sg469
F0.10512793008263074
sg470
F0.068758266004441917
sg471
F0.051735343847227791
sg472
F0.11111111111111113
sg473
F0.081943493629597713
sg474
F0.11111111111111112
sg475
F0.070969527664102486
sg476
F0.071137444709940836
sg477
F0.041270927255099767
sg478
F0.079758658804086932
sg479
F0.068817614652505882
sg480
F0.084300548271408898
sg481
F0.10256406821559212
sg482
F0.038849431056479249
sg483
F0.047097005517586804
sg484
F0.050911215072504082
sg485
F0.066067821434177831
sg486
F0.040543261799426598
sg487
F0.064025205375569341
sg488
F0.077449974159133017
sg489
F0.041371754171687737
sg490
F0.10512892004945044
sg491
F0.065834040793186527
sg492
F0.07618948323714729
sg493
F0.1111111111111111
sg494
F0.06213427902050285
sg495
F0.079656419538074702
sg496
F0.081056329657945903
sg497
F0.045831514645884669
sg498
F0.075252962036950477
sg499
F0.064103122692611231
sg500
F0.10509566935567255
sg501
F0.069361357463848722
sg502
F0.081942144286265672
sg503
F0.070871932935646031
sg504
F0.079688048257864935
sg505
F0.11111111111111112
sg506
F0.10989010821521109
sg507
F0.10513181399821088
sg508
F0.079783620296459148
sg509
F0.07518976918070043
sg510
F0.066813496517082627
sg511
F0.064775778045715937
sg512
F0.054488496165439652
sg513
F0.089151137598264513
sg514
F0.088622873800316027
sg515
F0.10752688614540465
sg516
F0.070197149440983181
sg517
F0.079668682393725695
sg518
F0.09388816960049276
sg519
F0.073093928866297037
sg520
F0.066064902159936822
sg521
F0.05851340738006678
sg522
F0.10869565276295959
sg523
F0.099367432636663561
sg524
F0.099508237932404695
sg525
F0.085036310671266296
sg526
F0.066066020689019317
sg527
F0.11111111111111112
sg528
F0.070197149440983181
sg529
F0.064775778045715937
sg530
F0.077561657415095353
sg531
F0.043977661994858849
sg532
F0.070969527664102486
sg533
F0.11111111111111113
sg534
F0.055083708016066303
sg535
F0.064703638455763726
sg536
F0.055035154499699347
sg537
F0.094172778959000142
sg538
F0.068876968299875635
sg539
F0.094202421283994614
sg540
F0.045562107788731661
sg541
F0.070197149440983181
sg542
F0.064828219675248419
sg543
F0.079650090764614059
sg544
F0.052023637841091472
sg545
F0.082051133030788342
sg546
F0.074948102040727965
sg547
F0.055010960023353782
sg548
F0.094133127153920776
sg549
F0.070197149440983181
sg550
F0.089151137598264513
sg551
F0.070197149440983181
sg552
F0.084300548271408898
sg553
F0.062030042600091387
sg554
F0.081970414902553787
sg555
F0.11111111111111112
sg556
F0.047056717309748829
sg557
F0.077449974159133017
sg558
F0.09417006886063764
sg559
F0.040783822882329415
sg560
F0.099367432636663561
sg561
F0.066026479086585127
sg562
F0.070197149440983181
sg563
F0.077524265805705858
sg564
F0.10509566935567255
sg565
F0.068876968299875635
sg566
F0.041919639823645043
sg567
F0.042814175356333188
sg568
F0.042418100464299946
sg569
F0.070197149440983195
sg570
F0.075252962036950477
sg571
F0.06675578186618733
sg572
F0.088622873800316027
sg573
F0.078793372282404142
sg574
F0.06213427902050285
sg575
F0.070197149440983181
sg576
F0.042569132130930373
sg577
F0.084300548271408898
sg578
F0.040047207117240954
sg579
F0.099516022199418436
sg580
F0.077196833901824774
sg581
F0.094172778959000142
sg582
F0.10752688614540465
sg583
F0.10309276068274746
sg584
F0.039178241929761375
sg585
F0.07532931128012485
sg586
F0.1111111111111111
sg587
F0.068375529226324255
sg588
F0.082885656924500936
sg589
F0.066969266323371884
sg590
F0.10526315479987429
sg591
F0.10204076599283833
sg592
F0.06501238765769958
sg593
F0.047302630494619857
sg594
F0.04858242610679283
sg595
F0.039854713296389656
sg596
F0.065464141153584759
sg597
F0.045746406435240805
sg598
F0.11111111111111113
sg599
F0.083539384788423182
sg600
F0.11111111111111113
sg601
F0.11111111111111112
sg602
F0.11111111111111113
sg603
F0.073046435657408704
sg604
F0.058189647330363178
sg605
F0.06367529195105856
sg606
F0.066876295781049089
sg607
F0.039748897817391986
sg608
F0.070969527664102486
sg609
F0.070916227906506091
sg610
F0.055038976427620352
sg611
F0.066026479086585127
sg612
F0.050141213914036038
sg613
F0.058516828288549441
sg614
F0.10638299717184034
sg615
F0.064605859326945111
sg616
F0.049164495749304413
sg617
F0.07143175308519395
sg618
F0.06675578186618733
sg619
F0.062986804494964868
sg620
F0.064103122692611231
sg621
F0.094197705612611163
sg622
F0.083539384788423182
sg623
F0.094172778959000142
sg624
F0.066066020689019317
sg625
F0.035982933041067082
sg626
F0.0786075352730813
sg627
F0.081970414902553787
sg628
F0.050221221529511834
sg629
F0.10204076599283833
sg630
F0.039167479322114632
sg631
F0.1111111111111111
sg632
F0.10101011111111112
sg633
F0.055038976427620352
sg634
L0L
sg635
F0.042507019024856867
sg636
F0.10256406821559212
sg637
F0.075382032994842488
sg638
F0.040236771684185921
sg639
F0.055067863099825379
sg640
F0.11111111111111113
sg641
F0.094133127153920776
sg642
F0.044133110914903836
sg643
L1L
sg644
F0.055183437762755728
sg645
F0.099496932302927332
sg646
F0.064605859326945111
sg647
F0.070197149440983195
sg648
F0.1111111111111111
sg649
F0.11111111111111112
sg650
F0.11111111111111112
sg651
F0.051735343847227791
sg652
F0.055160915894031791
sg653
F0.068876968299875635
sg654
F0.10989010821521109
sg655
F0.11111111111111113
sg656
F0.040783822882329415
sg657
F0.10869565276295959
sg658
F0.048803916531018329
sg659
F0.043763112151904801
sg660
F0.081056329657945903
sg661
F0.042657845623675139
sg662
F0.079688048257864935
sg663
F0.066069203279165642
sg664
F0.084278019103802504
sg665
F0.045601306146273793
sg666
F0.051735343847227791
sg667
F0.062192885028866517
sg668
F0.077400408331314091
sg669
F0.038208547638204547
sg670
F0.077400450852831051
sg671
F0.11111111111111112
sg672
F0.070197149440983181
sg673
F0.079480502250250995
sg674
F0.10362692829907269
sg675
F0.10050252723668149
sg676
F0.11111111111111113
sg677
F0.11111111111111113
sg678
F0.081973440227795721
sg679
I01
sg680
F0.09388816960049276
sa(dp684
g3
F0.13106697382707244
sg4
F0.11939953964220407
sg5
F0.13136951242766814
sg6
F0.10638299717184034
sg7
F0.1291669232126294
sg8
F0.11222401236528459
sg9
F0.1111111111111111
sg10
F0.13106511731116832
sg11
F0.12840650764926212
sg12
F0.11407975198563904
sg13
F0.11111111111111112
sg14
F0.12913362228825787
sg15
F0.12157917394193676
sg16
F0.12454321434820612
sg17
F0.12800586018923099
sg18
F0.13986067581944089
sg19
F0.10152284944413253
sg20
F0.13015026077877359
sg21
F0.13369936083293502
sg22
F0.10362692829907269
sg23
F0.10152284944413253
sg24
F0.13117581180456789
sg25
F0.11395078083898452
sg26
F0.11111111111111112
sg27
F0.14346050474582916
sg28
F0.13076902455489106
sg29
F0.10256406821559212
sg30
F0.11554264931774698
sg31
F0.13660415048591143
sg32
F0.12950254945579687
sg33
F0.1288206224411132
sg34
F0.1291669232126294
sg35
F0.12588709690178615
sg36
F0.13779743094667124
sg37
F0.14297454023808553
sg38
F0.092446144076337819
sg39
F0.13468414202397833
sg40
F0.11627421864387165
sg41
F0.14674995326785034
sg42
F0.095057925774600482
sg43
F0.12974620866748987
sg44
F0.12911908035091915
sg45
F0.12370412502221827
sg46
F0.11685892974008405
sg47
F0.10362692829907269
sg48
F0.13533580857595362
sg49
F0.13106511731116832
sg50
F0.090946794611478671
sg51
F0.12763042356755236
sg52
F0.10135782857551889
sg53
F0.12779379454866363
sg54
F0.11407975198563904
sg55
F0.11902846604874594
sg56
F0.12442856752027731
sg57
F0.11616149718531278
sg58
F0.12867689674483335
sg59
F0.12696112544065974
sg60
F0.1111111111111111
sg61
F0.14189440998304467
sg62
F0.13660415048591143
sg63
F0.10752688614540465
sg64
F0.14483732340225752
sg65
F0.10309276068274746
sg66
F0.12341047787291551
sg67
F0.13207971572088376
sg68
F0.11950843476604174
sg69
F0.14589902333788346
sg70
F0.14928536707723314
sg71
F0.12784645416109505
sg72
F0.11407975198563904
sg73
F0.12512262719058187
sg74
F0.13293502662942275
sg75
F0.13536270564246505
sg76
F0.12250437998236097
sg77
F0.12498120681399888
sg78
F0.13056840532774153
sg79
F0.13076995805572333
sg80
F0.14589902333788346
sg81
F0.10989010821521109
sg82
F0.13342605951136871
sg83
F0.10309276068274746
sg84
F0.13011470674919534
sg85
F0.11367500863383052
sg86
F0.12366595296828434
sg87
F0.12987912120289752
sg88
F0.13060332391170165
sg89
F0.10869565276295959
sg90
F0.10723290048939872
sg91
F0.12632771830394882
sg92
F0.11902846604874594
sg93
F0.12655040824834549
sg94
F0.12716202739573348
sg95
F0.11111111111111113
sg96
F0.11816369557736113
sg97
F0.11111111111111112
sg98
F0.1301669829391181
sg99
F0.11111111111111112
sg100
F0.092957001699833758
sg101
F0.14495269394184951
sg102
F0.13258743581963764
sg103
F0.13076902455489106
sg104
F0.12579370720422117
sg105
F0.12512262719058187
sg106
F0.11685892974008405
sg107
F0.13669908899442607
sg108
F0.11111111111111112
sg109
F0.1258439871983095
sg110
F0.12247123712113708
sg111
F0.1470969935905849
sg112
F0.12641058319759038
sg113
F0.14284699694132669
sg114
F0.10204076599283833
sg115
F0.13051655976405457
sg116
F0.13400630668735039
sg117
F0.11111111111111113
sg118
F0.1478801555532169
sg119
F0.12461797810876708
sg120
F0.11111111111111113
sg121
F0.13267409704607541
sg122
F0.10101011111111112
sg123
F0.11880012520016256
sg124
F0.13106511731116832
sg125
F0.098972622092706547
sg126
F0.16350100238959453
sg127
F0.095598099248302898
sg128
F0.1252736245015956
sg129
F0.13200014735332743
sg130
F0.11407975198563904
sg131
F0.12731996449727292
sg132
F0.093473466936080107
sg133
F0.13480990421396222
sg134
F0.11258613753537765
sg135
F0.129389614223646
sg136
F0.11660306761472079
sg137
F0.11394942726290992
sg138
F0.12886368724280189
sg139
F0.17255571989830776
sg140
F0.13378540485884605
sg141
F0.11376572130724548
sg142
F0.13669908899442607
sg143
F0.13441932759057368
sg144
F0.10869565276295959
sg145
F0.12144930726608535
sg146
F0.11111111111111113
sg147
F0.13533580857595362
sg148
F0.12366595296828434
sg149
F0.11111111111111112
sg150
F0.11735137079953584
sg151
F0.14495269394184951
sg152
F0.14390524868254168
sg153
F0.1387267515697207
sg154
F0.13293502662942275
sg155
F0.10050252723668149
sg156
F0.11367500863383052
sg157
F0.13627717208897844
sg158
F0.10526315479987429
sg159
F0.11111111111111113
sg160
F0.1221483850894961
sg161
F0.10135782857551889
sg162
F0.11111111111111113
sg163
F0.12124463970042826
sg164
F0.13106511731116832
sg165
F0.12498120681399888
sg166
F0.12156000647850745
sg167
F0.10362692829907269
sg168
F0.11912960452887131
sg169
F0.14500398754154298
sg170
F0.13331535526029695
sg171
F0.13060332391170165
sg172
F0.14928536707723314
sg173
F0.13240576638371179
sg174
F0.1483284564131119
sg175
F0.10471203643078439
sg176
F0.11685892974008405
sg177
F0.13138630622690353
sg178
F0.12151848807187604
sg179
F0.13355903826461074
sg180
F0.12826606562300696
sg181
F0.11111111111111113
sg182
F0.10135782857551891
sg183
F0.13066908538380195
sg184
F0.12124463970042826
sg185
F0.11950843476604174
sg186
F0.12736299211622965
sg187
F0.12144930726608535
sg188
F0.13218131874129321
sg189
F0.13779743094667124
sg190
F0.13136951242766814
sg191
F0.12454321434820612
sg192
F0.14186727314228825
sg193
L11407L
sg194
F0.10101011111111112
sg195
F0.13377321959885938
sg196
F0.11685892974008405
sg197
F0.13268163292200308
sg198
F0.093995703365934519
sg199
F0.10256406821559212
sg200
F0.11395078083898452
sg201
F0.11868854299064413
sg202
F0.10135782857551889
sg203
F0.11111111111111112
sg204
F0.13268163292200308
sg205
F0.13569401627010524
sg206
F0.12588709690178615
sg207
F0.14086922057389351
sg208
F0.12247123712113708
sg209
F0.13517186522560032
sg210
F0.11206932367826239
sg211
F0.12079803507570677
sg212
F0.1347744343310732
sg213
F0.091441150292578946
sg214
F0.13986067581944089
sg215
F0.10471203643078439
sg216
F0.13468414202397833
sg217
F0.12784645416109505
sg218
F0.10135782857551889
sg219
F0.10135782857551892
sg220
F0.13959332233606875
sg221
F0.12341047787291551
sg222
F0.14989314130134249
sg223
F0.11111111111111112
sg224
F0.13258743581963764
sg225
F0.11111111111111113
sg226
F0.10135782857551889
sg227
F0.14077471188312629
sg228
F0.12700486660666399
sg229
F0.11111111111111112
sg230
F0.14466492361005479
sg231
F0.10135782857551892
sg232
F0.13405309498343521
sg233
F0.14928536707723314
sg234
F0.12654833472037172
sg235
F0.11616149718531278
sg236
F0.11111111111111112
sg237
F0.13443103989561944
sg238
F0.10050252723668149
sg239
F0.12208043041799166
sg240
F0.13218131874129321
sg241
F0.12495240740952426
sg242
F0.15375740631701751
sg243
F0.11395078083898452
sg244
F0.129389614223646
sg245
F0.1001510265811671
sg246
F0.13189760194993366
sg247
F0.12111217816630304
sg248
F0.12581949006193879
sg249
F0.13801555340912297
sg250
F0.13443103989561944
sg251
F0.12588709690178615
sg252
F0.12030966344898515
sg253
F0.14077471188312629
sg254
F0.14284699694132669
sg255
F0.12208043041799166
sg256
F0.11325196054791245
sg257
F0.14390524868254168
sg258
F0.12580306568892963
sg259
F0.11378533378372971
sg260
F0.13207971572088376
sg261
F0.10309276068274746
sg262
F0.10989010821521109
sg263
F0.12787172997101365
sg264
F0.097821622023787164
sg265
F0.146590040620138
sg266
F0.10638299717184034
sg267
F0.13212275835069673
sg268
F0.12461797810876708
sg269
F0.12580306568892963
sg270
F0.1111111111111111
sg271
F0.14189440998304467
sg272
F0.13605109305683255
sg273
F0.10204076599283833
sg274
F0.10416665752171925
sg275
F0.13477933073720866
sg276
F0.11305306727420772
sg277
F0.12864225480394575
sg278
F0.13922389796887236
sg279
F0.11111111111111112
sg280
F0.13517186522560032
sg281
F0.12621844990892378
sg282
F0.13171223586603878
sg283
F0.14495269394184951
sg284
F0.11111111111111112
sg285
F0.12974620866748987
sg286
F0.11111111111111113
sg287
F0.11649946982590557
sg288
F0.13569873721325626
sg289
F0.13212275835069673
sg290
F0.12948929902698086
sg291
F0.10526315479987429
sg292
F0.13267409704607541
sg293
F0.12467666054394502
sg294
F0.095598099248302898
sg295
F0.12208043041799166
sg296
F0.093473466936080107
sg297
F0.11735137079953584
sg298
F0.12823519513108195
sg299
F0.14565370959799628
sg300
F0.10152284944413253
sg301
F0.15031258494756944
sg302
F0.11111111111111112
sg303
F0.13240576638371179
sg304
F0.12370412502221827
sg305
F0.12864225480394575
sg306
F0.1478801555532169
sg307
F0.11111111111111113
sg308
F0.12399312641405481
sg309
F0.12815433336241122
sg310
F0.17546061653897185
sg311
F0.12974620866748987
sg312
F0.12357906727029708
sg313
F0.11111111111111112
sg314
F0.1301669829391181
sg315
F0.13069849213197249
sg316
F0.14495269394184951
sg317
F0.11632994348143488
sg318
F0.092957001699833758
sg319
F0.1387267515697207
sg320
F0.10135782857551889
sg321
F0.12208043041799166
sg322
F0.12988446863635703
sg323
F0.11950843476604174
sg324
F0.12401215898170584
sg325
F0.10526315479987429
sg326
F0.10050252723668149
sg327
F0.12650666376282074
sg328
F0.12519941145010949
sg329
F0.13517186522560032
sg330
F0.11111111111111112
sg331
F0.10416665752171925
sg332
F0.11111111111111113
sg333
F0.10135782857551891
sg334
F0.12151848807187604
sg335
F0.12844671611206984
sg336
F0.12588709690178615
sg337
F0.15152762837866132
sg338
F0.10471203643078439
sg339
F0.13355903826461074
sg340
F0.10135782857551889
sg341
F0.1111111111111111
sg342
F0.14928536707723314
sg343
F0.11376572130724548
sg344
F0.13056840532774153
sg345
F0.1387267515697207
sg346
F0.13377321959885938
sg347
F0.11325196054791245
sg348
F0.12105455595575772
sg349
F0.13400630668735039
sg350
F0.17255571989830776
sg351
F0.12111217816630304
sg352
F0.13569873721325626
sg353
F0.13011470674919534
sg354
F0.13679577015767488
sg355
F0.1347744343310732
sg356
F0.10725689586834586
sg357
F0.16034232010175206
sg358
F0.10752688614540465
sg359
F0.13377321959885938
sg360
F0.10135782857551892
sg361
F0.11111111111111113
sg362
F0.14081002805746651
sg363
F0.15709748971090615
sg364
F0.11649946982590557
sg365
F0.13171223586603878
sg366
F0.11387997166447986
sg367
F0.12208043041799166
sg368
F0.12030966344898515
sg369
F0.11378533378372971
sg370
F0.10152284944413253
sg371
F0.12696112544065974
sg372
F0.1322855580553865
sg373
F0.10135782857551891
sg374
F0.13517186522560032
sg375
F0.10471203643078439
sg376
F0.091441150292578946
sg377
F0.13763541915628755
sg378
F0.11939953964220407
sg379
F0.12716202739573348
sg380
F0.14077471188312629
sg381
F0.11111111111111112
sg382
F0.13066908538380195
sg383
F0.12770955039116968
sg384
F0.13201619476121343
sg385
F0.11111111111111113
sg386
F0.13893287681907932
sg387
F0.11632994348143488
sg388
F0.13154712487652598
sg389
F0.10135782857551892
sg390
F0.11261130511704354
sg391
F0.11407975198563904
sg392
F0.14153382745506587
sg393
F0.10797820417315582
sg394
F0.13669908899442607
sg395
F0.12716202739573348
sg396
F0.12461797810876708
sg397
F0.12459677775723473
sg398
F0.10135782857551889
sg399
F0.10135782857551891
sg400
F0.098972622092706547
sg401
F0.13517186522560032
sg402
F0.11531912923384233
sg403
F0.12750609090588524
sg404
F0.13106511731116832
sg405
F0.11685892974008405
sg406
F0.13660415048591143
sg407
F0.11554264931774698
sg408
F0.13184829434686213
sg409
F0.1470969935905849
sg410
F0.096697080577885175
sg411
F0.1111111111111111
sg412
F0.14390524868254168
sg413
L2L
sg414
F0.12157917394193676
sg415
F0.12459677775723473
sg416
F0.15375740631701751
sg417
F0.11586243987681949
sg418
F0.14077471188312629
sg419
F0.12208043041799166
sg420
F0.11930198703219344
sg421
F0.10135782857551889
sg422
F0.10748689270781696
sg423
F0.14254067695145373
sg424
F0.13240576638371179
sg425
F0.097821622023787164
sg426
F0.10416665752171925
sg427
F0.10135782857551889
sg428
F0.12399312641405481
sg429
F0.15152762837866132
sg430
F0.14284699694132669
sg431
F0.16034232010175206
sg432
F0.11930198703219344
sg433
F0.10101011111111112
sg434
F0.12716202739573348
sg435
F0.13986067581944089
sg436
F0.093995703365934519
sg437
F0.12862007379775037
sg438
F0.12105455595575772
sg439
F0.094523826818168899
sg440
F0.13200014735332743
sg441
F0.12844671611206984
sg442
F0.13117581180456789
sg443
F0.11586243987681949
sg444
F0.11752981399017816
sg445
F0.1478801555532169
sg446
F0.15254470154494648
sg447
F0.13758057648470201
sg448
F0.12974620866748987
sg449
F0.11111111111111113
sg450
F0.13274864881360271
sg451
F0.11754065820926821
sg452
F0.14305604249844417
sg453
F0.13660415048591143
sg454
F0.12844671611206984
sg455
F0.16960062715812685
sg456
F0.12844671611206984
sg457
F0.10702100642927986
sg458
F0.12948929902698086
sg459
F0.12911908035091915
sg460
F0.091940903262711121
sg461
F0.1170474466575355
sg462
F0.11627421864387165
sg463
F0.12815433336241122
sg464
F0.10638299717184034
sg465
F0.11853837937244176
sg466
F0.13296679575589829
sg467
F0.11111111111111113
sg468
F0.10416665752171925
sg469
F0.11387997166447986
sg470
F0.13296679575589829
sg471
F0.12912310129784443
sg472
F0.11111111111111113
sg473
F0.1252736245015956
sg474
F0.11111111111111112
sg475
F0.13240576638371179
sg476
F0.13138630622690353
sg477
F0.14095243229354648
sg478
F0.12579370720422117
sg479
F0.13331535526029695
sg480
F0.12461797810876708
sg481
F0.10256406821559212
sg482
F0.14537929394591462
sg483
F0.13283561241178155
sg484
F0.14674995326785034
sg485
F0.10693276260290192
sg486
F0.14130831412845107
sg487
F0.092446144076337819
sg488
F0.12844671611206984
sg489
F0.15365420481810232
sg490
F0.11407975198563904
sg491
F0.095057925774600482
sg492
F0.1387267515697207
sg493
F0.1111111111111111
sg494
F0.15152762837866132
sg495
F0.12655040824834549
sg496
F0.13468414202397833
sg497
F0.13565273909774994
sg498
F0.12974620866748987
sg499
F0.13703883445988921
sg500
F0.11586243987681949
sg501
F0.1001510265811671
sg502
F0.12495240740952426
sg503
F0.13154712487652598
sg504
F0.12716202739573348
sg505
F0.11111111111111112
sg506
F0.10989010821521109
sg507
F0.11394942726290992
sg508
F0.12641058319759038
sg509
F0.1288206224411132
sg510
F0.13517186522560032
sg511
F0.13660415048591143
sg512
F0.13922389796887236
sg513
F0.11938439056833877
sg514
F0.12864225480394575
sg515
F0.10752688614540465
sg516
F0.10135782857551888
sg517
F0.12357906727029708
sg518
F0.12454321434820612
sg519
F0.13106511731116832
sg520
F0.11184059281924133
sg521
F0.11939953964220407
sg522
F0.10869565276295959
sg523
F0.12030966344898515
sg524
F0.11660306761472079
sg525
F0.12731996449727292
sg526
F0.10797820417315582
sg527
F0.11111111111111112
sg528
F0.10135782857551891
sg529
F0.13660415048591143
sg530
F0.12763042356755236
sg531
F0.13655615346684913
sg532
F0.13240576638371179
sg533
F0.11111111111111113
sg534
F0.12332540182825448
sg535
F0.13627717208897844
sg536
F0.12144187421564052
sg537
F0.11950843476604174
sg538
F0.13377321959885938
sg539
F0.11868854299064413
sg540
F0.13779743094667124
sg541
F0.10135782857551891
sg542
F0.13480990421396222
sg543
F0.12621844990892378
sg544
F0.14020329505737489
sg545
F0.12519941145010949
sg546
F0.12913362228825787
sg547
F0.12214513587603497
sg548
F0.11862439409406529
sg549
F0.10135782857551889
sg550
F0.11938439056833877
sg551
F0.10135782857551889
sg552
F0.12461797810876708
sg553
F0.1221483850894961
sg554
F0.12588709690178615
sg555
F0.11111111111111112
sg556
F0.13569873721325626
sg557
F0.12844671611206984
sg558
F0.11880012520016256
sg559
F0.16658470739219589
sg560
F0.12030966344898515
sg561
F0.11230894405297738
sg562
F0.10135782857551889
sg563
F0.12700486660666399
sg564
F0.11586243987681949
sg565
F0.13377321959885938
sg566
F0.13945124936518719
sg567
F0.13995219196947392
sg568
F0.16350100238959453
sg569
F0.10135782857551892
sg570
F0.12974620866748987
sg571
F0.1470969935905849
sg572
F0.12864225480394575
sg573
F0.12988446863635703
sg574
F0.15152762837866132
sg575
F0.10135782857551889
sg576
F0.13880364594480837
sg577
F0.12461797810876708
sg578
F0.14376630606116669
sg579
F0.11531912923384233
sg580
F0.12770955039116968
sg581
F0.11950843476604174
sg582
F0.10752688614540465
sg583
F0.10309276068274746
sg584
F0.14316025444720845
sg585
F0.12823519513108195
sg586
F0.1111111111111111
sg587
F0.13369936083293502
sg588
F0.12826606562300696
sg589
F0.096697080577885175
sg590
F0.10526315479987429
sg591
F0.10204076599283833
sg592
F0.13536270564246505
sg593
F0.13364013986020729
sg594
F0.13355903826461074
sg595
F0.14589902333788346
sg596
F0.094523826818168899
sg597
F0.15709748971090615
sg598
F0.11111111111111113
sg599
F0.13267409704607541
sg600
F0.11111111111111113
sg601
F0.11111111111111112
sg602
F0.11111111111111113
sg603
F0.13051655976405457
sg604
F0.13106697382707244
sg605
F0.091940903262711121
sg606
F0.13342605951136871
sg607
F0.14281956033654708
sg608
F0.13240576638371179
sg609
F0.13189760194993366
sg610
F0.12442856752027731
sg611
F0.11230894405297738
sg612
F0.13136951242766814
sg613
F0.11687547916257629
sg614
F0.10638299717184034
sg615
F0.13594179668961673
sg616
F0.15031258494756944
sg617
F0.14284699694132669
sg618
F0.1470969935905849
sg619
F0.090946794611478671
sg620
F0.13703883445988921
sg621
F0.11912960452887131
sg622
F0.13267409704607541
sg623
F0.11950843476604174
sg624
F0.10797820417315582
sg625
F0.17546061653897185
sg626
F0.13669908899442607
sg627
F0.12588709690178615
sg628
F0.12993202191196049
sg629
F0.10204076599283833
sg630
F0.16960062715812685
sg631
F0.1111111111111111
sg632
F0.10101011111111112
sg633
F0.12442856752027731
sg634
L2L
sg635
F0.13870375139138624
sg636
F0.10256406821559212
sg637
F0.12886368724280189
sg638
F0.1546313928522153
sg639
F0.12215804311030018
sg640
F0.11111111111111113
sg641
F0.11862439409406529
sg642
F0.13691164669192693
sg643
L0L
sg644
F0.1348263657781904
sg645
F0.11685892974008405
sg646
F0.13594179668961673
sg647
F0.10135782857551892
sg648
F0.1111111111111111
sg649
F0.11111111111111112
sg650
F0.11111111111111112
sg651
F0.12912310129784443
sg652
F0.12290888199968789
sg653
F0.13377321959885938
sg654
F0.10989010821521109
sg655
F0.11111111111111113
sg656
F0.16658470739219589
sg657
F0.10869565276295959
sg658
F0.13159289596053034
sg659
F0.15129533795962014
sg660
F0.13468414202397833
sg661
F0.14189440998304467
sg662
F0.12716202739573348
sg663
F0.10766381616567841
sg664
F0.12401215898170584
sg665
F0.13488101811282704
sg666
F0.12912310129784443
sg667
F0.11335108593805845
sg668
F0.12467666054394502
sg669
F0.14527298057365634
sg670
F0.12750609090588524
sg671
F0.11111111111111112
sg672
F0.10135782857551888
sg673
F0.12632771830394882
sg674
F0.10362692829907269
sg675
F0.10050252723668149
sg676
F0.11111111111111113
sg677
F0.11111111111111113
sg678
F0.12250437998236097
sg679
I01
sg680
F0.12454321434820612
sa(dp685
g3
F0.14693330915935537
sg4
F0.135354153315248
sg5
F0.14504131403545531
sg6
F0.10638299717184034
sg7
F0.12966324032027482
sg8
F0.12267385679677545
sg9
F0.1111111111111111
sg10
F0.13106511731116832
sg11
F0.14505882703460876
sg12
F0.11407975198563904
sg13
F0.11111111111111112
sg14
F0.129040120938539
sg15
F0.12157917394193676
sg16
F0.12454321434820612
sg17
F0.14157267661554951
sg18
F0.15188428741544246
sg19
F0.10152284944413253
sg20
F0.14328011813159527
sg21
F0.13358663945652077
sg22
F0.10362692829907269
sg23
F0.10152284944413253
sg24
F0.13205119713930247
sg25
F0.13090534785161767
sg26
F0.11111111111111112
sg27
F0.14905528927811409
sg28
F0.13022818998527533
sg29
F0.10256406821559212
sg30
F0.11570449198440974
sg31
F0.13660415048591143
sg32
F0.13858311305773577
sg33
F0.12877022341084693
sg34
F0.12966324032027482
sg35
F0.12588709690178615
sg36
F0.15022066624344932
sg37
F0.15376567095495886
sg38
F0.10990363737303635
sg39
F0.13468414202397833
sg40
F0.11582303675419177
sg41
F0.16063170797119658
sg42
F0.11300862689457188
sg43
F0.12974620866748987
sg44
F0.12987143742466697
sg45
F0.12366703856681345
sg46
F0.11685892974008405
sg47
F0.10362692829907269
sg48
F0.13521656233242346
sg49
F0.13106511731116832
sg50
F0.10812115134803496
sg51
F0.12763042356755236
sg52
F0.12049820084960645
sg53
F0.14191861504970105
sg54
F0.11407975198563904
sg55
F0.11948145153626477
sg56
F0.13943582218515602
sg57
F0.11613271400890346
sg58
F0.1423057916373294
sg59
F0.12734765804776738
sg60
F0.1111111111111111
sg61
F0.15352575188438702
sg62
F0.13660415048591143
sg63
F0.10752688614540465
sg64
F0.15925553677754539
sg65
F0.10309276068274746
sg66
F0.12267657596558985
sg67
F0.13161963053096978
sg68
F0.11950843476604174
sg69
F0.15676604650684076
sg70
F0.14928536707723314
sg71
F0.12837269524428885
sg72
F0.11407975198563904
sg73
F0.12567640843519862
sg74
F0.13394617195145089
sg75
F0.13536270564246505
sg76
F0.12176949017613616
sg77
F0.12490669920111179
sg78
F0.13140498688311497
sg79
F0.14397011181116462
sg80
F0.15676604650684076
sg81
F0.10989010821521109
sg82
F0.13306144484945709
sg83
F0.10309276068274746
sg84
F0.13011470674919534
sg85
F0.11366025576583079
sg86
F0.1235977956889006
sg87
F0.12948528017441033
sg88
F0.13050346014752134
sg89
F0.10869565276295959
sg90
F0.12523642369416566
sg91
F0.1262468797715959
sg92
F0.11948145153626477
sg93
F0.12709631067482383
sg94
F0.12716202739573348
sg95
F0.11111111111111113
sg96
F0.13103216709377141
sg97
F0.11111111111111112
sg98
F0.13011328945470652
sg99
F0.11111111111111112
sg100
F0.11051096514817411
sg101
F0.14495269394184951
sg102
F0.13356735974985687
sg103
F0.13022818998527533
sg104
F0.12507016470174093
sg105
F0.12567640843519862
sg106
F0.11685892974008405
sg107
F0.13669908899442607
sg108
F0.11111111111111112
sg109
F0.13985662580517277
sg110
F0.12290831846559566
sg111
F0.1470969935905849
sg112
F0.12641058319759038
sg113
F0.14284699694132669
sg114
F0.10204076599283833
sg115
F0.13097253644426299
sg116
F0.13400630668735039
sg117
F0.11111111111111113
sg118
F0.15837408460704433
sg119
F0.12461797810876708
sg120
F0.11111111111111113
sg121
F0.13267409704607541
sg122
F0.10101011111111112
sg123
F0.11877693411422106
sg124
F0.13106511731116832
sg125
F0.11766257291762523
sg126
F0.17506697394986326
sg127
F0.11365080651347842
sg128
F0.12582906588820314
sg129
F0.13439251870573252
sg130
F0.11407975198563904
sg131
F0.12797842206947924
sg132
F0.11112495947543699
sg133
F0.13455569611739165
sg134
F0.12952187086966671
sg135
F0.13065881913892288
sg136
F0.11660306761472079
sg137
F0.11394942726290992
sg138
F0.12886368724280189
sg139
F0.18279912541986637
sg140
F0.13189677191537921
sg141
F0.11351339511679756
sg142
F0.13669908899442607
sg143
F0.14669901614232397
sg144
F0.10869565276295959
sg145
F0.12055765269438473
sg146
F0.11111111111111113
sg147
F0.13521656233242346
sg148
F0.1235977956889006
sg149
F0.11111111111111112
sg150
F0.11629143675910772
sg151
F0.14495269394184951
sg152
F0.15515120833745985
sg153
F0.1387267515697207
sg154
F0.13394617195145089
sg155
F0.10050252723668149
sg156
F0.11366025576583079
sg157
F0.13646484120925903
sg158
F0.10526315479987429
sg159
F0.11111111111111113
sg160
F0.13906186543731902
sg161
F0.12049820084960644
sg162
F0.11111111111111113
sg163
F0.12121439552387979
sg164
F0.13106511731116832
sg165
F0.12490669920111179
sg166
F0.12558313643733457
sg167
F0.10362692829907269
sg168
F0.11912960452887131
sg169
F0.15541548101550037
sg170
F0.13365900019187774
sg171
F0.13050346014752134
sg172
F0.14928536707723314
sg173
F0.13240576638371179
sg174
F0.16222844767159261
sg175
F0.10471203643078439
sg176
F0.11685892974008405
sg177
F0.13138630622690353
sg178
F0.1220423285994813
sg179
F0.14680581151776323
sg180
F0.12897274707159484
sg181
F0.11111111111111113
sg182
F0.12049820084960645
sg183
F0.13246816704159906
sg184
F0.12121439552387979
sg185
F0.11950843476604174
sg186
F0.1371084729536467
sg187
F0.12055765269438473
sg188
F0.1331282758339129
sg189
F0.15022066624344932
sg190
F0.14504131403545531
sg191
F0.12454321434820612
sg192
F0.15316068275759778
sg193
L27442L
sg194
F0.10101011111111112
sg195
F0.13377321959885938
sg196
F0.11685892974008405
sg197
F0.13268163292200308
sg198
F0.11174581482622711
sg199
F0.10256406821559212
sg200
F0.13090534785161767
sg201
F0.11809105444491488
sg202
F0.12049820084960644
sg203
F0.11111111111111112
sg204
F0.13268163292200308
sg205
F0.13323444945177382
sg206
F0.12588709690178615
sg207
F0.15192321329789479
sg208
F0.12290831846559566
sg209
F0.13517186522560032
sg210
F0.12898659725570696
sg211
F0.13823835916550198
sg212
F0.13504562069837969
sg213
F0.10870886096049949
sg214
F0.15188428741544246
sg215
F0.10471203643078439
sg216
F0.13468414202397833
sg217
F0.12837269524428885
sg218
F0.12049820084960644
sg219
F0.12049820084960647
sg220
F0.14598374387363586
sg221
F0.12267657596558985
sg222
F0.16349116750854076
sg223
F0.11111111111111112
sg224
F0.13356735974985687
sg225
F0.11111111111111113
sg226
F0.12049820084960644
sg227
F0.14077471188312629
sg228
F0.12630644187209705
sg229
F0.11111111111111112
sg230
F0.15919559764250088
sg231
F0.12049820084960647
sg232
F0.14691331888026837
sg233
F0.14928536707723314
sg234
F0.14061541838397662
sg235
F0.11613271400890346
sg236
F0.11111111111111112
sg237
F0.1343674349317639
sg238
F0.10050252723668149
sg239
F0.12208043041799166
sg240
F0.1331282758339129
sg241
F0.12491195726095647
sg242
F0.16669361327635107
sg243
F0.13090534785161767
sg244
F0.13065881913892288
sg245
F0.11906350684377777
sg246
F0.13230276619866407
sg247
F0.12105683636720596
sg248
F0.12739306136013925
sg249
F0.15007718173171372
sg250
F0.1343674349317639
sg251
F0.12588709690178615
sg252
F0.12030966344898515
sg253
F0.14077471188312629
sg254
F0.14284699694132669
sg255
F0.12208043041799166
sg256
F0.11272633062575821
sg257
F0.15515120833745985
sg258
F0.12583177676036122
sg259
F0.11377717689025321
sg260
F0.13161963053096978
sg261
F0.10309276068274746
sg262
F0.10989010821521109
sg263
F0.12840208976971304
sg264
F0.11629421845076504
sg265
F0.160800828849713
sg266
F0.10638299717184034
sg267
F0.13201649415146671
sg268
F0.12461797810876708
sg269
F0.12583177676036122
sg270
F0.1111111111111111
sg271
F0.15352575188438702
sg272
F0.1485079550082167
sg273
F0.10204076599283833
sg274
F0.10416665752171925
sg275
F0.15105033943598581
sg276
F0.12778377313515782
sg277
F0.12864225480394575
sg278
F0.1540810554114054
sg279
F0.11111111111111112
sg280
F0.13517186522560032
sg281
F0.12617466461833701
sg282
F0.13262438214374897
sg283
F0.14495269394184951
sg284
F0.11111111111111112
sg285
F0.12974620866748987
sg286
F0.11111111111111113
sg287
F0.11684175012742053
sg288
F0.14852950163143711
sg289
F0.13201649415146671
sg290
F0.12888203894732819
sg291
F0.10526315479987429
sg292
F0.13267409704607541
sg293
F0.12440031314006167
sg294
F0.11365080651347842
sg295
F0.12208043041799166
sg296
F0.11112495947543699
sg297
F0.11629143675910772
sg298
F0.12757544519434227
sg299
F0.15620537482384544
sg300
F0.10152284944413253
sg301
F0.16371806877139095
sg302
F0.11111111111111112
sg303
F0.13240576638371179
sg304
F0.12366703856681345
sg305
F0.12864225480394575
sg306
F0.15837408460704433
sg307
F0.11111111111111113
sg308
F0.12399312641405481
sg309
F0.12895336233238022
sg310
F0.18527193707555037
sg311
F0.12974620866748987
sg312
F0.12304885896996445
sg313
F0.11111111111111112
sg314
F0.13011328945470652
sg315
F0.14758249726651082
sg316
F0.14495269394184951
sg317
F0.11631408725835393
sg318
F0.11051096514817411
sg319
F0.1387267515697207
sg320
F0.12049820084960644
sg321
F0.12208043041799166
sg322
F0.1306800791435524
sg323
F0.11950843476604174
sg324
F0.12456707698542942
sg325
F0.10526315479987429
sg326
F0.10050252723668149
sg327
F0.14393380354889196
sg328
F0.12519941145010949
sg329
F0.13517186522560032
sg330
F0.11111111111111112
sg331
F0.10416665752171925
sg332
F0.11111111111111113
sg333
F0.12049820084960645
sg334
F0.1220423285994813
sg335
F0.12844671611206984
sg336
F0.12588709690178615
sg337
F0.15152762837866132
sg338
F0.10471203643078439
sg339
F0.14680581151776323
sg340
F0.12049820084960644
sg341
F0.1111111111111111
sg342
F0.14928536707723314
sg343
F0.11351339511679756
sg344
F0.13140498688311497
sg345
F0.1387267515697207
sg346
F0.13377321959885938
sg347
F0.11272633062575821
sg348
F0.12036285170295699
sg349
F0.13400630668735039
sg350
F0.18279912541986637
sg351
F0.12105683636720596
sg352
F0.14852950163143711
sg353
F0.13011470674919534
sg354
F0.15273343632608494
sg355
F0.13504562069837969
sg356
F0.12618538337635651
sg357
F0.17235920470676552
sg358
F0.10752688614540465
sg359
F0.13377321959885938
sg360
F0.12049820084960647
sg361
F0.11111111111111113
sg362
F0.15602588649245103
sg363
F0.16957097697278378
sg364
F0.11684175012742053
sg365
F0.13262438214374897
sg366
F0.11407143239510004
sg367
F0.12208043041799166
sg368
F0.12030966344898515
sg369
F0.11377717689025321
sg370
F0.10152284944413253
sg371
F0.12734765804776738
sg372
F0.14498659825556892
sg373
F0.12049820084960645
sg374
F0.13517186522560032
sg375
F0.10471203643078439
sg376
F0.10870886096049949
sg377
F0.1444824258005038
sg378
F0.135354153315248
sg379
F0.12716202739573348
sg380
F0.14077471188312629
sg381
F0.11111111111111112
sg382
F0.13246816704159906
sg383
F0.1276223867513607
sg384
F0.1452884876873185
sg385
F0.11111111111111113
sg386
F0.15049977620779861
sg387
F0.11631408725835393
sg388
F0.13149013760063755
sg389
F0.12049820084960647
sg390
F0.13126314902766681
sg391
F0.11407975198563904
sg392
F0.14750711205833802
sg393
F0.12599215831125832
sg394
F0.13669908899442607
sg395
F0.12716202739573348
sg396
F0.12461797810876708
sg397
F0.12386144703940448
sg398
F0.12049820084960644
sg399
F0.12049820084960647
sg400
F0.11766257291762523
sg401
F0.13517186522560032
sg402
F0.11444006127895627
sg403
F0.12745899204461689
sg404
F0.13106511731116832
sg405
F0.11685892974008405
sg406
F0.13660415048591143
sg407
F0.11570449198440974
sg408
F0.13064825860159573
sg409
F0.1470969935905849
sg410
F0.11495731904283185
sg411
F0.1111111111111111
sg412
F0.15515120833745985
sg413
L5L
sg414
F0.12157917394193676
sg415
F0.12386144703940448
sg416
F0.16669361327635107
sg417
F0.11586243987681949
sg418
F0.14077471188312629
sg419
F0.12208043041799166
sg420
F0.11960894195154591
sg421
F0.12049820084960644
sg422
F0.12430169036838182
sg423
F0.15740057076927602
sg424
F0.13240576638371179
sg425
F0.11629421845076504
sg426
F0.10416665752171925
sg427
F0.12049820084960644
sg428
F0.12399312641405481
sg429
F0.15152762837866132
sg430
F0.14284699694132669
sg431
F0.17235920470676552
sg432
F0.11960894195154591
sg433
F0.10101011111111112
sg434
F0.12716202739573348
sg435
F0.15188428741544246
sg436
F0.11174581482622711
sg437
F0.14578426771572631
sg438
F0.12036285170295699
sg439
F0.11237366890237588
sg440
F0.13439251870573252
sg441
F0.12844671611206984
sg442
F0.13205119713930247
sg443
F0.11586243987681949
sg444
F0.1334583975600751
sg445
F0.15837408460704433
sg446
F0.16556457443700243
sg447
F0.1346684182360246
sg448
F0.12974620866748987
sg449
F0.11111111111111113
sg450
F0.14933503025705896
sg451
F0.13585056734475415
sg452
F0.15371218393172564
sg453
F0.13660415048591143
sg454
F0.12844671611206984
sg455
F0.18028026502423672
sg456
F0.12844671611206984
sg457
F0.12151094096734007
sg458
F0.12888203894732819
sg459
F0.12987143742466697
sg460
F0.10930298708392279
sg461
F0.12402044336469575
sg462
F0.11582303675419177
sg463
F0.12895336233238022
sg464
F0.10638299717184034
sg465
F0.13450013643338141
sg466
F0.13290650714819466
sg467
F0.11111111111111113
sg468
F0.10416665752171925
sg469
F0.11407143239510004
sg470
F0.13290650714819466
sg471
F0.14322956785452964
sg472
F0.11111111111111113
sg473
F0.12582906588820314
sg474
F0.11111111111111112
sg475
F0.13240576638371179
sg476
F0.13138630622690353
sg477
F0.15212850996504554
sg478
F0.12507016470174093
sg479
F0.13365900019187774
sg480
F0.12461797810876708
sg481
F0.10256406821559212
sg482
F0.15063395579647473
sg483
F0.14561581069160084
sg484
F0.16063170797119658
sg485
F0.12492729926391276
sg486
F0.13785142665662534
sg487
F0.10990363737303635
sg488
F0.12844671611206984
sg489
F0.16639739230791192
sg490
F0.11407975198563904
sg491
F0.11300862689457188
sg492
F0.1387267515697207
sg493
F0.1111111111111111
sg494
F0.15152762837866132
sg495
F0.12709631067482383
sg496
F0.13468414202397833
sg497
F0.14299618194209723
sg498
F0.12974620866748987
sg499
F0.13691297818939865
sg500
F0.11586243987681949
sg501
F0.11906350684377777
sg502
F0.12491195726095647
sg503
F0.13149013760063755
sg504
F0.12716202739573348
sg505
F0.11111111111111112
sg506
F0.10989010821521109
sg507
F0.11394942726290992
sg508
F0.12641058319759038
sg509
F0.12877022341084693
sg510
F0.13517186522560032
sg511
F0.13660415048591143
sg512
F0.1540810554114054
sg513
F0.11831872596990307
sg514
F0.12864225480394575
sg515
F0.10752688614540465
sg516
F0.12049820084960643
sg517
F0.12304885896996445
sg518
F0.12454321434820612
sg519
F0.13106511731116832
sg520
F0.13011039729819102
sg521
F0.135354153315248
sg522
F0.10869565276295959
sg523
F0.12030966344898515
sg524
F0.11660306761472079
sg525
F0.12797842206947924
sg526
F0.12599215831125832
sg527
F0.11111111111111112
sg528
F0.12049820084960645
sg529
F0.13660415048591143
sg530
F0.12763042356755236
sg531
F0.14842129929726722
sg532
F0.13240576638371179
sg533
F0.11111111111111113
sg534
F0.13834485327408633
sg535
F0.13646484120925903
sg536
F0.13637565306449351
sg537
F0.11950843476604174
sg538
F0.13377321959885938
sg539
F0.11809105444491488
sg540
F0.15022066624344932
sg541
F0.12049820084960647
sg542
F0.13455569611739165
sg543
F0.12617466461833701
sg544
F0.15540191795769973
sg545
F0.12519941145010949
sg546
F0.129040120938539
sg547
F0.14004713135839092
sg548
F0.11858213249899768
sg549
F0.12049820084960644
sg550
F0.11831872596990307
sg551
F0.12049820084960644
sg552
F0.12461797810876708
sg553
F0.13906186543731902
sg554
F0.12588709690178615
sg555
F0.11111111111111112
sg556
F0.14852950163143711
sg557
F0.12844671611206984
sg558
F0.11877693411422106
sg559
F0.17770506710686668
sg560
F0.12030966344898515
sg561
F0.1303121165425809
sg562
F0.12049820084960644
sg563
F0.12630644187209705
sg564
F0.11586243987681949
sg565
F0.13377321959885938
sg566
F0.13620616718600395
sg567
F0.1516261596655161
sg568
F0.17506697394986326
sg569
F0.12049820084960647
sg570
F0.12974620866748987
sg571
F0.1470969935905849
sg572
F0.12864225480394575
sg573
F0.1306800791435524
sg574
F0.15152762837866132
sg575
F0.12049820084960645
sg576
F0.15438972976937579
sg577
F0.12461797810876708
sg578
F0.15468581574020171
sg579
F0.11444006127895627
sg580
F0.1276223867513607
sg581
F0.11950843476604174
sg582
F0.10752688614540465
sg583
F0.10309276068274746
sg584
F0.13961563212732853
sg585
F0.12757544519434227
sg586
F0.1111111111111111
sg587
F0.13358663945652077
sg588
F0.12897274707159484
sg589
F0.11495731904283185
sg590
F0.10526315479987429
sg591
F0.10204076599283833
sg592
F0.13536270564246505
sg593
F0.14152070513799481
sg594
F0.14680581151776323
sg595
F0.15676604650684076
sg596
F0.11237366890237588
sg597
F0.16957097697278378
sg598
F0.11111111111111113
sg599
F0.13267409704607541
sg600
F0.11111111111111113
sg601
F0.11111111111111112
sg602
F0.11111111111111113
sg603
F0.13097253644426299
sg604
F0.14693330915935537
sg605
F0.10930298708392279
sg606
F0.13306144484945709
sg607
F0.15764624820839701
sg608
F0.13240576638371179
sg609
F0.13230276619866407
sg610
F0.13943582218515602
sg611
F0.1303121165425809
sg612
F0.14504131403545531
sg613
F0.13277514638716198
sg614
F0.10638299717184034
sg615
F0.13587485525314008
sg616
F0.16371806877139095
sg617
F0.14284699694132669
sg618
F0.1470969935905849
sg619
F0.10812115134803496
sg620
F0.13691297818939865
sg621
F0.11912960452887131
sg622
F0.13267409704607541
sg623
F0.11950843476604174
sg624
F0.12599215831125832
sg625
F0.18527193707555037
sg626
F0.13669908899442607
sg627
F0.12588709690178615
sg628
F0.14362563887203991
sg629
F0.10204076599283833
sg630
F0.18028026502423672
sg631
F0.1111111111111111
sg632
F0.10101011111111112
sg633
F0.13943582218515602
sg634
L2L
sg635
F0.15016053291018341
sg636
F0.10256406821559212
sg637
F0.12886368724280189
sg638
F0.16710584651423102
sg639
F0.13713260454956977
sg640
F0.11111111111111113
sg641
F0.11858213249899768
sg642
F0.14887582252315684
sg643
L3L
sg644
F0.15073177873894658
sg645
F0.11685892974008405
sg646
F0.13587485525314008
sg647
F0.12049820084960647
sg648
F0.1111111111111111
sg649
F0.11111111111111112
sg650
F0.11111111111111112
sg651
F0.14322956785452964
sg652
F0.13412021769294258
sg653
F0.13377321959885938
sg654
F0.10989010821521109
sg655
F0.11111111111111113
sg656
F0.17770506710686668
sg657
F0.10869565276295959
sg658
F0.14005220306572361
sg659
F0.16460006443216579
sg660
F0.13468414202397833
sg661
F0.15352575188438702
sg662
F0.12716202739573348
sg663
F0.12567863808773913
sg664
F0.12456707698542942
sg665
F0.14724942733550359
sg666
F0.14322956785452964
sg667
F0.13030896787103968
sg668
F0.12440031314006167
sg669
F0.15553566967348018
sg670
F0.12745899204461689
sg671
F0.11111111111111112
sg672
F0.12049820084960643
sg673
F0.1262468797715959
sg674
F0.10362692829907269
sg675
F0.10050252723668149
sg676
F0.11111111111111113
sg677
F0.11111111111111113
sg678
F0.12176949017613616
sg679
I01
sg680
F0.12454321434820612
sa(dp686
g3
F0.085429952416411714
sg4
F0.079756225875274964
sg5
F0.083336495271006492
sg6
F0.14070382648148566
sg7
F0.10627517826565799
sg8
F0.080413246987099396
sg9
F0.1111111111111111
sg10
F0.10585996875926325
sg11
F0.067114487344273513
sg12
F0.10893160002709613
sg13
F0.11111111111111112
sg14
F0.11106866869172988
sg15
F0.10478636977103213
sg16
F0.11048096880350698
sg17
F0.087845352016369865
sg18
F0.087875592878566597
sg19
F0.17112292598106585
sg20
F0.089304090119812995
sg21
F0.11378152582116036
sg22
F0.15795374108602675
sg23
F0.17112292598106585
sg24
F0.076854049657558932
sg25
F0.079098124385973897
sg26
F0.11111111111111112
sg27
F0.092304127286513368
sg28
F0.10739388276877283
sg29
F0.16460605876131196
sg30
F0.10537078191406921
sg31
F0.10803393217812761
sg32
F0.083561694419234028
sg33
F0.10750582061838536
sg34
F0.10627517826565799
sg35
F0.10504959830079173
sg36
F0.086614846902469816
sg37
F0.094738072370840601
sg38
F0.14337217759730805
sg39
F0.11395251122884119
sg40
F0.10759424969071667
sg41
F0.093284512271375158
sg42
F0.12463633433616775
sg43
F0.10552745287627639
sg44
F0.082294271583639195
sg45
F0.10644826004860652
sg46
F0.10728745249237451
sg47
F0.15795374108602675
sg48
F0.11489491233410416
sg49
F0.10585996875926325
sg50
F0.15412789144045261
sg51
F0.10421513416895326
sg52
F0.079443433445200926
sg53
F0.081424124588648228
sg54
F0.10893160002709613
sg55
F0.10643200217520464
sg56
F0.080879889797837085
sg57
F0.10876903277148496
sg58
F0.08484893528696974
sg59
F0.11165221721997114
sg60
F0.1111111111111111
sg61
F0.089217063021814882
sg62
F0.10803393217812761
sg63
F0.13354435840504161
sg64
F0.095205807212702331
sg65
F0.16129703408467688
sg66
F0.10576146140336189
sg67
F0.1079816503263826
sg68
F0.10612374100746835
sg69
F0.092133941760287164
sg70
F0.12410705992200291
sg71
F0.10597132384108146
sg72
F0.10893160002709613
sg73
F0.090521319668272551
sg74
F0.070434220422476712
sg75
F0.10632685389788277
sg76
F0.10910818992482488
sg77
F0.10927419538389768
sg78
F0.078603676311828338
sg79
F0.085995645890411004
sg80
F0.092133941760287164
sg81
F0.11875322626080334
sg82
F0.10865890780747169
sg83
F0.16129703408467688
sg84
F0.10459394318585766
sg85
F0.10967060581573748
sg86
F0.1088804645634824
sg87
F0.087020053488631899
sg88
F0.11186988537698038
sg89
F0.12622918404758268
sg90
F0.079261507071603912
sg91
F0.1097705239020802
sg92
F0.10643200217520464
sg93
F0.10575506665804363
sg94
F0.10512017276463051
sg95
F0.11111111111111113
sg96
F0.080022172148419876
sg97
F0.11111111111111112
sg98
F0.1079993499908764
sg99
F0.11111111111111112
sg100
F0.13970749598592164
sg101
F0.12058261409615346
sg102
F0.071957077544249473
sg103
F0.10739388276877283
sg104
F0.10594075782656703
sg105
F0.090521319668272551
sg106
F0.10728745249237451
sg107
F0.11503181871021784
sg108
F0.11111111111111112
sg109
F0.086490533017273122
sg110
F0.095107981949126341
sg111
F0.12228076712570815
sg112
F0.10415130142552464
sg113
F0.1190098180981234
sg114
F0.16788134652500442
sg115
F0.10666482220652319
sg116
F0.10577357113124122
sg117
F0.11111111111111113
sg118
F0.093707639372196963
sg119
F0.10507042427321696
sg120
F0.11111111111111113
sg121
F0.11299887648581153
sg122
F0.17433209558727109
sg123
F0.10694492051963667
sg124
F0.10585996875926325
sg125
F0.096553919684213368
sg126
F0.1063148853143475
sg127
F0.120761352922581
sg128
F0.1056288591751308
sg129
F0.11603911292780639
sg130
F0.10893160002709613
sg131
F0.086258832267655156
sg132
F0.13600258767655729
sg133
F0.10942810161740374
sg134
F0.079669955268563297
sg135
F0.11360103680775224
sg136
F0.10700061984946881
sg137
F0.10879280337858044
sg138
F0.10436330449878568
sg139
F0.11557797728519935
sg140
F0.089633026165899632
sg141
F0.10909380506131396
sg142
F0.11503181871021784
sg143
F0.092523729521003434
sg144
F0.12622918404758268
sg145
F0.10874203611445274
sg146
F0.11111111111111113
sg147
F0.11489491233410416
sg148
F0.1088804645634824
sg149
F0.11111111111111112
sg150
F0.10833832652661401
sg151
F0.12058261409615346
sg152
F0.090637021540963911
sg153
F0.11623475463125138
sg154
F0.070434220422476712
sg155
F0.17750900403650047
sg156
F0.10967060581573748
sg157
F0.10907319152601072
sg158
F0.1477127896746161
sg159
F0.11111111111111113
sg160
F0.082551766359556564
sg161
F0.079443433445200939
sg162
F0.11111111111111113
sg163
F0.10649186193462221
sg164
F0.10585996875926325
sg165
F0.10927419538389768
sg166
F0.082962641211787397
sg167
F0.15795374108602675
sg168
F0.10568000857528541
sg169
F0.096497060772184048
sg170
F0.10770064465819013
sg171
F0.11186988537698038
sg172
F0.12410705992200291
sg173
F0.10627789117510825
sg174
F0.054598841624090323
sg175
F0.15116217546382096
sg176
F0.10728745249237451
sg177
F0.10490645462636483
sg178
F0.10581102061077173
sg179
F0.084342408228355981
sg180
F0.084240875716084102
sg181
F0.11111111111111113
sg182
F0.079443433445200939
sg183
F0.11475701439043952
sg184
F0.10649186193462221
sg185
F0.10612374100746835
sg186
F0.082662967078917057
sg187
F0.10874203611445274
sg188
F0.073533216899018566
sg189
F0.086614846902469816
sg190
F0.083336495271006492
sg191
F0.11048096880350698
sg192
F0.088700764696102732
sg193
L23512L
sg194
F0.17433209558727109
sg195
F0.10677973051392267
sg196
F0.10728745249237451
sg197
F0.10530025848732832
sg198
F0.13225627920769925
sg199
F0.16460605876131196
sg200
F0.079098124385973897
sg201
F0.10656324107215738
sg202
F0.079443433445200926
sg203
F0.11111111111111112
sg204
F0.10530025848732832
sg205
F0.091095256981458456
sg206
F0.10504959830079173
sg207
F0.09810319076767296
sg208
F0.095107981949126341
sg209
F0.1073648118447597
sg210
F0.080691862145983409
sg211
F0.070911876339337279
sg212
F0.10834452906288068
sg213
F0.15058158794866
sg214
F0.087875592878566597
sg215
F0.15116217546382096
sg216
F0.11395251122884119
sg217
F0.10597132384108146
sg218
F0.079443433445200926
sg219
F0.079443433445200939
sg220
F0.089378133672028015
sg221
F0.10576146140336189
sg222
F0.053295721645340244
sg223
F0.11111111111111112
sg224
F0.071957077544249473
sg225
F0.11111111111111113
sg226
F0.079443433445200926
sg227
F0.11755995836362178
sg228
F0.10616914046585757
sg229
F0.11111111111111112
sg230
F0.057365197714002114
sg231
F0.079443433445200939
sg232
F0.084057670227914813
sg233
F0.12410705992200291
sg234
F0.083796908588373381
sg235
F0.10876903277148496
sg236
F0.11111111111111112
sg237
F0.11002489380286307
sg238
F0.17750900403650047
sg239
F0.10539579740113539
sg240
F0.073533216899018566
sg241
F0.10657202654904507
sg242
F0.098109092224683711
sg243
F0.079098124385973897
sg244
F0.11360103680775224
sg245
F0.088100532554382535
sg246
F0.10714050151508771
sg247
F0.10840399496011999
sg248
F0.084801555657306182
sg249
F0.086224970758501843
sg250
F0.11002489380286307
sg251
F0.10504959830079173
sg252
F0.11005293856726329
sg253
F0.11755995836362178
sg254
F0.1190098180981234
sg255
F0.10539579740113539
sg256
F0.10970243563008343
sg257
F0.090637021540963911
sg258
F0.11085137406799998
sg259
F0.10920821827265936
sg260
F0.1079816503263826
sg261
F0.16129703408467688
sg262
F0.11875322626080334
sg263
F0.085862248175115369
sg264
F0.10481071882603279
sg265
F0.055954530248740149
sg266
F0.14070382648148566
sg267
F0.11277444762079882
sg268
F0.10507042427321696
sg269
F0.11085137406799998
sg270
F0.1111111111111111
sg271
F0.089217063021814882
sg272
F0.085101809811585369
sg273
F0.16788134652500442
sg274
F0.15457563864010393
sg275
F0.087669308523865397
sg276
F0.079330402494827784
sg277
F0.11147445928246932
sg278
F0.089035631593991624
sg279
F0.11111111111111112
sg280
F0.1073648118447597
sg281
F0.10679047866950865
sg282
F0.075164690071232027
sg283
F0.12058261409615346
sg284
F0.11111111111111112
sg285
F0.10552745287627639
sg286
F0.11111111111111113
sg287
F0.10749070790575832
sg288
F0.085436594569349766
sg289
F0.11277444762079882
sg290
F0.10689561173017616
sg291
F0.1477127896746161
sg292
F0.11299887648581153
sg293
F0.11016216074871946
sg294
F0.120761352922581
sg295
F0.10539579740113539
sg296
F0.13600258767655729
sg297
F0.10833832652661401
sg298
F0.10648781366748179
sg299
F0.091471860529276791
sg300
F0.17112292598106585
sg301
F0.095628054316586941
sg302
F0.11111111111111112
sg303
F0.10627789117510825
sg304
F0.10644826004860652
sg305
F0.11147445928246932
sg306
F0.093707639372196963
sg307
F0.11111111111111113
sg308
F0.10428611029888742
sg309
F0.11256839954511717
sg310
F0.11888553852063413
sg311
F0.10552745287627639
sg312
F0.10958097747360662
sg313
F0.11111111111111112
sg314
F0.1079993499908764
sg315
F0.085223458038811206
sg316
F0.12058261409615346
sg317
F0.10783665275166299
sg318
F0.13970749598592164
sg319
F0.11623475463125138
sg320
F0.079443433445200926
sg321
F0.10539579740113539
sg322
F0.080416210304543267
sg323
F0.10612374100746835
sg324
F0.10559454647329437
sg325
F0.1477127896746161
sg326
F0.17750900403650047
sg327
F0.083133835784234722
sg328
F0.10417427865859727
sg329
F0.1073648118447597
sg330
F0.11111111111111112
sg331
F0.15457563864010393
sg332
F0.11111111111111113
sg333
F0.079443433445200939
sg334
F0.10581102061077173
sg335
F0.10528026215602088
sg336
F0.10504959830079173
sg337
F0.12606099321788988
sg338
F0.15116217546382096
sg339
F0.084342408228355981
sg340
F0.079443433445200926
sg341
F0.1111111111111111
sg342
F0.12410705992200291
sg343
F0.10909380506131396
sg344
F0.078603676311828338
sg345
F0.11623475463125138
sg346
F0.10677973051392267
sg347
F0.10970243563008343
sg348
F0.10596154997649895
sg349
F0.10577357113124122
sg350
F0.11557797728519935
sg351
F0.10840399496011999
sg352
F0.085436594569349766
sg353
F0.10459394318585766
sg354
F0.089017938436665653
sg355
F0.10834452906288068
sg356
F0.079084442368454466
sg357
F0.10345654404826499
sg358
F0.13354435840504161
sg359
F0.10677973051392267
sg360
F0.079443433445200939
sg361
F0.11111111111111113
sg362
F0.09195648481014175
sg363
F0.10071999723315564
sg364
F0.10749070790575832
sg365
F0.075164690071232027
sg366
F0.10903200400401561
sg367
F0.10539579740113539
sg368
F0.11005293856726329
sg369
F0.10920821827265936
sg370
F0.17112292598106585
sg371
F0.11165221721997114
sg372
F0.090864112661981827
sg373
F0.079443433445200939
sg374
F0.1073648118447597
sg375
F0.15116217546382096
sg376
F0.15058158794866
sg377
F0.088042312638059159
sg378
F0.079756225875274964
sg379
F0.10512017276463051
sg380
F0.11755995836362178
sg381
F0.11111111111111112
sg382
F0.11475701439043952
sg383
F0.11036938614497893
sg384
F0.083094194667675078
sg385
F0.11111111111111113
sg386
F0.091477922295025119
sg387
F0.10783665275166299
sg388
F0.10858433118730985
sg389
F0.079443433445200939
sg390
F0.079347051295188681
sg391
F0.10893160002709613
sg392
F0.090798170413328091
sg393
F0.078967898164084782
sg394
F0.11503181871021784
sg395
F0.10512017276463051
sg396
F0.10507042427321696
sg397
F0.10580450525125878
sg398
F0.079443433445200926
sg399
F0.079443433445200939
sg400
F0.096553919684213368
sg401
F0.1073648118447597
sg402
F0.10878928844450796
sg403
F0.10710241803880496
sg404
F0.10585996875926325
sg405
F0.10728745249237451
sg406
F0.10803393217812761
sg407
F0.10537078191406921
sg408
F0.088276272421534352
sg409
F0.12228076712570815
sg410
F0.11287771473349745
sg411
F0.1111111111111111
sg412
F0.090637021540963911
sg413
L3L
sg414
F0.10478636977103213
sg415
F0.10580450525125878
sg416
F0.098109092224683711
sg417
F0.11024105091438557
sg418
F0.11755995836362178
sg419
F0.10539579740113539
sg420
F0.10004753188463836
sg421
F0.079443433445200926
sg422
F0.079116852565819698
sg423
F0.05883314965319552
sg424
F0.10627789117510825
sg425
F0.10481071882603279
sg426
F0.15457563864010393
sg427
F0.079443433445200939
sg428
F0.10428611029888742
sg429
F0.12606099321788988
sg430
F0.1190098180981234
sg431
F0.10345654404826499
sg432
F0.10004753188463836
sg433
F0.17433209558727109
sg434
F0.10512017276463051
sg435
F0.087875592878566597
sg436
F0.13225627920769925
sg437
F0.084132412802868775
sg438
F0.10596154997649895
sg439
F0.12846773967157438
sg440
F0.11603911292780639
sg441
F0.10528026215602088
sg442
F0.076854049657558932
sg443
F0.11024105091438557
sg444
F0.080596945134298326
sg445
F0.093707639372196963
sg446
F0.050839653989325162
sg447
F0.092665793554395678
sg448
F0.10552745287627639
sg449
F0.11111111111111113
sg450
F0.086403925735340281
sg451
F0.080150211202122471
sg452
F0.10016467181021295
sg453
F0.10803393217812761
sg454
F0.10528026215602088
sg455
F0.11237743559466301
sg456
F0.10528026215602088
sg457
F0.079719756697013547
sg458
F0.10689561173017616
sg459
F0.082294271583639195
sg460
F0.14699656653438409
sg461
F0.081498931107030617
sg462
F0.10759424969071667
sg463
F0.11256839954511717
sg464
F0.14070382648148566
sg465
F0.079214123013186574
sg466
F0.10925957641704323
sg467
F0.11111111111111113
sg468
F0.15457563864010393
sg469
F0.10903200400401561
sg470
F0.10925957641704323
sg471
F0.082421746645667454
sg472
F0.11111111111111113
sg473
F0.1056288591751308
sg474
F0.11111111111111112
sg475
F0.10627789117510825
sg476
F0.10490645462636483
sg477
F0.093065178345417693
sg478
F0.10594075782656703
sg479
F0.10770064465819013
sg480
F0.10507042427321696
sg481
F0.16460605876131196
sg482
F0.093895870778333224
sg483
F0.087233701583589576
sg484
F0.093284512271375158
sg485
F0.079765847177144883
sg486
F0.096150971957699297
sg487
F0.14337217759730805
sg488
F0.10528026215602088
sg489
F0.049682317423261083
sg490
F0.10893160002709613
sg491
F0.12463633433616775
sg492
F0.11623475463125138
sg493
F0.1111111111111111
sg494
F0.12606099321788988
sg495
F0.10575506665804363
sg496
F0.11395251122884119
sg497
F0.086792466118257902
sg498
F0.10552745287627639
sg499
F0.11611569787458428
sg500
F0.11024105091438557
sg501
F0.088100532554382535
sg502
F0.10657202654904507
sg503
F0.10858433118730985
sg504
F0.10512017276463051
sg505
F0.11111111111111112
sg506
F0.11875322626080334
sg507
F0.10879280337858044
sg508
F0.10415130142552464
sg509
F0.10750582061838536
sg510
F0.1073648118447597
sg511
F0.10803393217812761
sg512
F0.089035631593991624
sg513
F0.1083262002872859
sg514
F0.11147445928246932
sg515
F0.13354435840504161
sg516
F0.079443433445200912
sg517
F0.10958097747360662
sg518
F0.11048096880350698
sg519
F0.10585996875926325
sg520
F0.075015468844248645
sg521
F0.079756225875274964
sg522
F0.12622918404758268
sg523
F0.11005293856726329
sg524
F0.10700061984946881
sg525
F0.086258832267655156
sg526
F0.078967898164084782
sg527
F0.11111111111111112
sg528
F0.079443433445200939
sg529
F0.10803393217812761
sg530
F0.10421513416895326
sg531
F0.094284121791347555
sg532
F0.10627789117510825
sg533
F0.11111111111111113
sg534
F0.080118070601714886
sg535
F0.10907319152601072
sg536
F0.084097915251419242
sg537
F0.10612374100746835
sg538
F0.10677973051392267
sg539
F0.10656324107215738
sg540
F0.086614846902469816
sg541
F0.079443433445200939
sg542
F0.10942810161740374
sg543
F0.10679047866950865
sg544
F0.060360604524429894
sg545
F0.10417427865859727
sg546
F0.11106866869172988
sg547
F0.081428971297653224
sg548
F0.10835901944321787
sg549
F0.079443433445200926
sg550
F0.1083262002872859
sg551
F0.079443433445200926
sg552
F0.10507042427321696
sg553
F0.082551766359556564
sg554
F0.10504959830079173
sg555
F0.11111111111111112
sg556
F0.085436594569349766
sg557
F0.10528026215602088
sg558
F0.10694492051963667
sg559
F0.10928917216503158
sg560
F0.11005293856726329
sg561
F0.080510446873060304
sg562
F0.079443433445200926
sg563
F0.10616914046585757
sg564
F0.11024105091438557
sg565
F0.10677973051392267
sg566
F0.094348324965486785
sg567
F0.087425340647360086
sg568
F0.1063148853143475
sg569
F0.079443433445200939
sg570
F0.10552745287627639
sg571
F0.12228076712570815
sg572
F0.11147445928246932
sg573
F0.080416210304543267
sg574
F0.12606099321788988
sg575
F0.079443433445200926
sg576
F0.090447930938946486
sg577
F0.10507042427321696
sg578
F0.090049759218069084
sg579
F0.10878928844450796
sg580
F0.11036938614497893
sg581
F0.10612374100746835
sg582
F0.13354435840504161
sg583
F0.16129703408467688
sg584
F0.098076658641663872
sg585
F0.10648781366748179
sg586
F0.1111111111111111
sg587
F0.11378152582116036
sg588
F0.084240875716084102
sg589
F0.11287771473349745
sg590
F0.1477127896746161
sg591
F0.16788134652500442
sg592
F0.10632685389788277
sg593
F0.085628626135451552
sg594
F0.084342408228355981
sg595
F0.092133941760287164
sg596
F0.12846773967157438
sg597
F0.10071999723315564
sg598
F0.11111111111111113
sg599
F0.11299887648581153
sg600
F0.11111111111111113
sg601
F0.11111111111111112
sg602
F0.11111111111111113
sg603
F0.10666482220652319
sg604
F0.085429952416411714
sg605
F0.14699656653438409
sg606
F0.10865890780747169
sg607
F0.093542778661902873
sg608
F0.10627789117510825
sg609
F0.10714050151508771
sg610
F0.080879889797837085
sg611
F0.080510446873060304
sg612
F0.083336495271006492
sg613
F0.082153054481280033
sg614
F0.14070382648148566
sg615
F0.1108827307103286
sg616
F0.095628054316586941
sg617
F0.1190098180981234
sg618
F0.12228076712570815
sg619
F0.15412789144045261
sg620
F0.11611569787458428
sg621
F0.10568000857528541
sg622
F0.11299887648581153
sg623
F0.10612374100746835
sg624
F0.078967898164084782
sg625
F0.11888553852063413
sg626
F0.11503181871021784
sg627
F0.10504959830079173
sg628
F0.082215390069193983
sg629
F0.16788134652500442
sg630
F0.11237743559466301
sg631
F0.1111111111111111
sg632
F0.17433209558727109
sg633
F0.080879889797837085
sg634
L1L
sg635
F0.096144062076025966
sg636
F0.16460605876131196
sg637
F0.10436330449878568
sg638
F0.048569627777191642
sg639
F0.081986368196014806
sg640
F0.11111111111111113
sg641
F0.10835901944321787
sg642
F0.089975621086233276
sg643
L2L
sg644
F0.063604033353534789
sg645
F0.10728745249237451
sg646
F0.1108827307103286
sg647
F0.079443433445200939
sg648
F0.1111111111111111
sg649
F0.11111111111111112
sg650
F0.11111111111111112
sg651
F0.082421746645667454
sg652
F0.081144470894623344
sg653
F0.10677973051392267
sg654
F0.11875322626080334
sg655
F0.11111111111111113
sg656
F0.10928917216503158
sg657
F0.12622918404758268
sg658
F0.084550674501544743
sg659
F0.05204329215997025
sg660
F0.11395251122884119
sg661
F0.089217063021814882
sg662
F0.10512017276463051
sg663
F0.078809566747175874
sg664
F0.10559454647329437
sg665
F0.088560663688721869
sg666
F0.082421746645667454
sg667
F0.078757995848938472
sg668
F0.11016216074871946
sg669
F0.10232744741805878
sg670
F0.10710241803880496
sg671
F0.11111111111111112
sg672
F0.079443433445200912
sg673
F0.1097705239020802
sg674
F0.15795374108602675
sg675
F0.17750900403650047
sg676
F0.11111111111111113
sg677
F0.11111111111111113
sg678
F0.10910818992482488
sg679
I01
sg680
F0.11048096880350698
sa(dp687
g3
F0.05141091571097392
sg4
F0.051696959730649687
sg5
F0.044300074677292779
sg6
F0.10638299717184034
sg7
F0.07521105210708745
sg8
F0.055016417249618463
sg9
F0.1111111111111111
sg10
F0.073093928866297037
sg11
F0.051745637661147995
sg12
F0.10512892004945044
sg13
F0.11111111111111112
sg14
F0.074948102040727965
sg15
F0.089162127054003296
sg16
F0.09388816960049276
sg17
F0.044271076214248466
sg18
F0.038959524638673047
sg19
F0.10152284944413253
sg20
F0.04287992104949831
sg21
F0.068375529226324255
sg22
F0.10362692829907269
sg23
F0.10152284944413253
sg24
F0.074961877876747671
sg25
F0.054937059966772075
sg26
F0.11111111111111112
sg27
F0.035519739152011807
sg28
F0.071044026471919389
sg29
F0.10256406821559212
sg30
F0.10514972564232218
sg31
F0.064775778045715937
sg32
F0.044473748980902728
sg33
F0.07518976918070043
sg34
F0.07521105210708745
sg35
F0.081970414902553787
sg36
F0.040254405905610982
sg37
F0.035228070661152917
sg38
F0.056566667576684999
sg39
F0.081056329657945903
sg40
F0.099512116030760808
sg41
F0.044980375494903975
sg42
F0.058164784930141052
sg43
F0.075252962036950477
sg44
F0.080805555831330006
sg45
F0.084280232956160578
sg46
F0.099496932302927332
sg47
F0.10362692829907269
sg48
F0.066230712631619476
sg49
F0.073093928866297037
sg50
F0.055649233933482603
sg51
F0.077561657415095353
sg52
F0.062019618585622764
sg53
F0.045767969792869997
sg54
F0.10512892004945044
sg55
F0.094164257400360399
sg56
F0.048627278352006635
sg57
F0.099481188368322052
sg58
F0.044334149615938512
sg59
F0.072955578621677425
sg60
F0.1111111111111111
sg61
F0.037688472200555136
sg62
F0.064775778045715937
sg63
F0.10752688614540465
sg64
F0.033901900303422307
sg65
F0.10309276068274746
sg66
F0.084360103854409008
sg67
F0.068947008100480947
sg68
F0.094172778959000142
sg69
F0.035211887336814546
sg70
F0.064439866417672423
sg71
F0.077413351407705749
sg72
F0.10512892004945044
sg73
F0.089560891049789412
sg74
F0.068003100004047884
sg75
F0.06501238765769958
sg76
F0.081973440227795721
sg77
F0.081802859348119525
sg78
F0.076846303285381071
sg79
F0.042958209911557389
sg80
F0.035211887336814546
sg81
F0.10989010821521109
sg82
F0.066876295781049089
sg83
F0.10309276068274746
sg84
F0.073241689744694569
sg85
F0.10512548683428044
sg86
F0.084167724833933671
sg87
F0.043360701235067189
sg88
F0.072730683225121093
sg89
F0.10869565276295959
sg90
F0.058372494694505117
sg91
F0.079480502250250995
sg92
F0.094164257400360399
sg93
F0.079656419538074702
sg94
F0.079688048257864935
sg95
F0.11111111111111113
sg96
F0.051764205137014664
sg97
F0.11111111111111112
sg98
F0.073014747225548238
sg99
F0.11111111111111112
sg100
F0.056879255123261821
sg101
F0.069085255699764592
sg102
F0.069660428841235036
sg103
F0.071044026471919389
sg104
F0.079758658804086932
sg105
F0.089560891049789412
sg106
F0.099496932302927332
sg107
F0.0786075352730813
sg108
F0.11111111111111112
sg109
F0.045690593215967218
sg110
F0.094403527001310994
sg111
F0.06675578186618733
sg112
F0.079783620296459148
sg113
F0.07143175308519395
sg114
F0.10204076599283833
sg115
F0.073046435657408704
sg116
F0.067025554672499529
sg117
F0.11111111111111113
sg118
F0.03400296859764125
sg119
F0.084300548271408898
sg120
F0.11111111111111113
sg121
F0.083539384788423182
sg122
F0.10101011111111112
sg123
F0.09417006886063764
sg124
F0.073093928866297037
sg125
F0.060560139841938372
sg126
F0.037476655859569677
sg127
F0.058495310487761236
sg128
F0.081943493629597713
sg129
F0.064311444903883824
sg130
F0.10512892004945044
sg131
F0.085036310671266296
sg132
F0.057195273899659213
sg133
F0.064828219675248419
sg134
F0.054946373022333607
sg135
F0.068604291742425133
sg136
F0.099508237932404695
sg137
F0.10513181399821088
sg138
F0.075382032994842488
sg139
F0.03319120936456349
sg140
F0.040771366192436542
sg141
F0.10513326779538268
sg142
F0.0786075352730813
sg143
F0.040173758408925148
sg144
F0.10869565276295959
sg145
F0.084319105205434536
sg146
F0.11111111111111113
sg147
F0.066230712631619476
sg148
F0.084167724833933671
sg149
F0.11111111111111112
sg150
F0.094203183481432112
sg151
F0.069085255699764592
sg152
F0.036439736826413389
sg153
F0.07618948323714729
sg154
F0.068003100004047884
sg155
F0.10050252723668149
sg156
F0.10512548683428044
sg157
F0.064703638455763726
sg158
F0.10526315479987429
sg159
F0.11111111111111113
sg160
F0.054803928842466078
sg161
F0.062019618585622764
sg162
F0.11111111111111113
sg163
F0.089109540843304053
sg164
F0.073093928866297037
sg165
F0.081802859348119525
sg166
F0.048878328797071324
sg167
F0.10362692829907269
sg168
F0.094197705612611163
sg169
F0.034010145752722383
sg170
F0.068817614652505882
sg171
F0.072730683225121093
sg172
F0.064439866417672423
sg173
F0.070969527664102486
sg174
F0.040930300157229066
sg175
F0.10471203643078439
sg176
F0.099496932302927332
sg177
F0.071137444709940836
sg178
F0.089103779004108513
sg179
F0.042922875944423705
sg180
F0.082885656924500936
sg181
F0.11111111111111113
sg182
F0.062019618585622771
sg183
F0.066452717202333408
sg184
F0.089109540843304053
sg185
F0.094172778959000142
sg186
F0.045859983586358746
sg187
F0.084319105205434536
sg188
F0.071371317334147574
sg189
F0.040254405905610982
sg190
F0.044300074677292779
sg191
F0.09388816960049276
sg192
F0.036593486628310162
sg193
L411L
sg194
F0.10101011111111112
sg195
F0.068876968299875635
sg196
F0.099496932302927332
sg197
F0.069066183602110573
sg198
F0.057514823999008036
sg199
F0.10256406821559212
sg200
F0.054937059966772075
sg201
F0.094202421283994614
sg202
F0.062019618585622757
sg203
F0.11111111111111112
sg204
F0.069066183602110573
sg205
F0.03950920697983961
sg206
F0.081970414902553787
sg207
F0.036273895246988694
sg208
F0.094403527001310994
sg209
F0.066813496517082627
sg210
F0.054940795969025083
sg211
F0.05494686775059103
sg212
F0.066747834289075395
sg213
F0.055951724142856325
sg214
F0.038959524638673047
sg215
F0.10471203643078439
sg216
F0.081056329657945903
sg217
F0.077413351407705749
sg218
F0.062019618585622764
sg219
F0.062019618585622778
sg220
F0.037964648542662516
sg221
F0.084360103854409008
sg222
F0.03977787256855795
sg223
F0.11111111111111112
sg224
F0.069660428841235036
sg225
F0.11111111111111113
sg226
F0.062019618585622757
sg227
F0.073798730451706096
sg228
F0.077524265805705858
sg229
F0.11111111111111112
sg230
F0.043359007013728218
sg231
F0.062019618585622778
sg232
F0.041670358840777938
sg233
F0.064439866417672423
sg234
F0.045740426415717683
sg235
F0.099481188368322052
sg236
F0.11111111111111112
sg237
F0.06667074885589136
sg238
F0.10050252723668149
sg239
F0.089118571463076127
sg240
F0.071371317334147574
sg241
F0.081942144286265672
sg242
F0.041916563067517107
sg243
F0.054937059966772075
sg244
F0.068604291742425133
sg245
F0.061281191170099537
sg246
F0.070916227906506091
sg247
F0.089040724818010841
sg248
F0.046055192532295244
sg249
F0.039082708391275769
sg250
F0.06667074885589136
sg251
F0.081970414902553787
sg252
F0.099367432636663561
sg253
F0.073798730451706096
sg254
F0.07143175308519395
sg255
F0.089118571463076127
sg256
F0.10513519003002164
sg257
F0.036439736826413389
sg258
F0.075164132155970412
sg259
F0.10512920050447727
sg260
F0.068947008100480947
sg261
F0.10309276068274746
sg262
F0.10989010821521109
sg263
F0.04469332020870545
sg264
F0.059855856943718824
sg265
F0.042123471452814573
sg266
F0.10638299717184034
sg267
F0.070540963689116026
sg268
F0.084300548271408898
sg269
F0.075164132155970412
sg270
F0.1111111111111111
sg271
F0.037688472200555136
sg272
F0.040363364721203186
sg273
F0.10204076599283833
sg274
F0.10416665752171925
sg275
F0.040190761575830417
sg276
F0.054970206286483872
sg277
F0.088622873800316027
sg278
F0.048140925613024493
sg279
F0.11111111111111112
sg280
F0.066813496517082627
sg281
F0.079650090764614059
sg282
F0.073137653275785197
sg283
F0.069085255699764592
sg284
F0.11111111111111112
sg285
F0.075252962036950477
sg286
F0.11111111111111113
sg287
F0.099493054771841116
sg288
F0.041574902723018878
sg289
F0.070540963689116026
sg290
F0.073170417181033703
sg291
F0.10526315479987429
sg292
F0.083539384788423182
sg293
F0.077400408331314091
sg294
F0.058495310487761236
sg295
F0.089118571463076127
sg296
F0.057195273899659213
sg297
F0.094203183481432112
sg298
F0.07532931128012485
sg299
F0.034190048311457978
sg300
F0.10152284944413253
sg301
F0.043437138097606839
sg302
F0.11111111111111112
sg303
F0.070969527664102486
sg304
F0.084280232956160578
sg305
F0.088622873800316027
sg306
F0.03400296859764125
sg307
F0.11111111111111113
sg308
F0.084367652088891174
sg309
F0.070770375061577864
sg310
F0.031791145375143694
sg311
F0.075252962036950477
sg312
F0.079668682393725695
sg313
F0.11111111111111112
sg314
F0.073014747225548238
sg315
F0.042873305219400797
sg316
F0.069085255699764592
sg317
F0.099496837378918734
sg318
F0.056879255123261821
sg319
F0.07618948323714729
sg320
F0.062019618585622764
sg321
F0.089118571463076127
sg322
F0.078793372282404142
sg323
F0.094172778959000142
sg324
F0.084278019103802504
sg325
F0.10526315479987429
sg326
F0.10050252723668149
sg327
F0.045672014540282406
sg328
F0.082051133030788342
sg329
F0.066813496517082627
sg330
F0.11111111111111112
sg331
F0.10416665752171925
sg332
F0.11111111111111113
sg333
F0.062019618585622771
sg334
F0.089103779004108513
sg335
F0.077449974159133017
sg336
F0.081970414902553787
sg337
F0.06213427902050285
sg338
F0.10471203643078439
sg339
F0.042922875944423705
sg340
F0.062019618585622764
sg341
F0.1111111111111111
sg342
F0.064439866417672423
sg343
F0.10513326779538268
sg344
F0.076846303285381071
sg345
F0.07618948323714729
sg346
F0.068876968299875635
sg347
F0.10513519003002164
sg348
F0.089163729407019318
sg349
F0.067025554672499529
sg350
F0.03319120936456349
sg351
F0.089040724818010841
sg352
F0.041574902723018878
sg353
F0.073241689744694569
sg354
F0.038888571061464566
sg355
F0.066747834289075395
sg356
F0.058367894652793358
sg357
F0.038937727496520476
sg358
F0.10752688614540465
sg359
F0.068876968299875635
sg360
F0.062019618585622778
sg361
F0.11111111111111113
sg362
F0.036353930221088411
sg363
F0.040417234907263719
sg364
F0.099493054771841116
sg365
F0.073137653275785197
sg366
F0.10512793008263074
sg367
F0.089118571463076127
sg368
F0.099367432636663561
sg369
F0.10512920050447727
sg370
F0.10152284944413253
sg371
F0.072955578621677425
sg372
F0.041514858427627858
sg373
F0.062019618585622771
sg374
F0.066813496517082627
sg375
F0.10471203643078439
sg376
F0.055951724142856325
sg377
F0.039217269674082122
sg378
F0.051696959730649687
sg379
F0.079688048257864935
sg380
F0.073798730451706096
sg381
F0.11111111111111112
sg382
F0.066452717202333408
sg383
F0.077196833901824774
sg384
F0.043005566101139814
sg385
F0.11111111111111113
sg386
F0.037717104695101367
sg387
F0.099496837378918734
sg388
F0.070871932935646031
sg389
F0.062019618585622778
sg390
F0.054930100965647537
sg391
F0.10512892004945044
sg392
F0.036732831188344112
sg393
F0.058369740612439484
sg394
F0.0786075352730813
sg395
F0.079688048257864935
sg396
F0.084300548271408898
sg397
F0.082036033331212441
sg398
F0.062019618585622757
sg399
F0.062019618585622771
sg400
F0.060560139841938372
sg401
F0.066813496517082627
sg402
F0.099516022199418436
sg403
F0.077400450852831051
sg404
F0.073093928866297037
sg405
F0.099496932302927332
sg406
F0.064775778045715937
sg407
F0.10514972564232218
sg408
F0.042054336245199025
sg409
F0.06675578186618733
sg410
F0.059167763754088165
sg411
F0.1111111111111111
sg412
F0.036439736826413389
sg413
L1L
sg414
F0.089162127054003296
sg415
F0.082036033331212441
sg416
F0.041916563067517107
sg417
F0.10509566935567255
sg418
F0.073798730451706096
sg419
F0.089118571463076127
sg420
F0.09959050356242434
sg421
F0.062019618585622764
sg422
F0.058378927098747778
sg423
F0.044638456064056586
sg424
F0.070969527664102486
sg425
F0.059855856943718824
sg426
F0.10416665752171925
sg427
F0.062019618585622764
sg428
F0.084367652088891174
sg429
F0.06213427902050285
sg430
F0.07143175308519395
sg431
F0.038937727496520476
sg432
F0.09959050356242434
sg433
F0.10101011111111112
sg434
F0.079688048257864935
sg435
F0.038959524638673047
sg436
F0.057514823999008036
sg437
F0.044257192464152738
sg438
F0.089163729407019318
sg439
F0.057837976295520524
sg440
F0.064311444903883824
sg441
F0.077449974159133017
sg442
F0.074961877876747671
sg443
F0.10509566935567255
sg444
F0.051714452585336364
sg445
F0.03400296859764125
sg446
F0.037590323695278226
sg447
F0.038265073988275909
sg448
F0.075252962036950477
sg449
F0.11111111111111113
sg450
F0.041518403501226306
sg451
F0.051682198009225119
sg452
F0.035008546726229946
sg453
F0.064775778045715937
sg454
F0.077449974159133017
sg455
F0.034604711841754711
sg456
F0.077449974159133017
sg457
F0.058391949460089812
sg458
F0.073170417181033703
sg459
F0.080805555831330006
sg460
F0.05625751688753354
sg461
F0.051855956787075233
sg462
F0.099512116030760808
sg463
F0.070770375061577864
sg464
F0.10638299717184034
sg465
F0.051720106103476514
sg466
F0.068758266004441917
sg467
F0.11111111111111113
sg468
F0.10416665752171925
sg469
F0.10512793008263074
sg470
F0.068758266004441917
sg471
F0.045708498398481026
sg472
F0.11111111111111113
sg473
F0.081943493629597713
sg474
F0.11111111111111112
sg475
F0.070969527664102486
sg476
F0.071137444709940836
sg477
F0.036463121186825515
sg478
F0.079758658804086932
sg479
F0.068817614652505882
sg480
F0.084300548271408898
sg481
F0.10256406821559212
sg482
F0.034323714218865348
sg483
F0.041610497605482161
sg484
F0.044980375494903975
sg485
F0.058371331581998663
sg486
F0.035820224226219936
sg487
F0.056566667576684999
sg488
F0.077449974159133017
sg489
F0.036552202395389505
sg490
F0.10512892004945044
sg491
F0.058164784930141052
sg492
F0.07618948323714729
sg493
F0.1111111111111111
sg494
F0.06213427902050285
sg495
F0.079656419538074702
sg496
F0.081056329657945903
sg497
F0.040492428541259853
sg498
F0.075252962036950477
sg499
F0.064103122692611231
sg500
F0.10509566935567255
sg501
F0.061281191170099537
sg502
F0.081942144286265672
sg503
F0.070871932935646031
sg504
F0.079688048257864935
sg505
F0.11111111111111112
sg506
F0.10989010821521109
sg507
F0.10513181399821088
sg508
F0.079783620296459148
sg509
F0.07518976918070043
sg510
F0.066813496517082627
sg511
F0.064775778045715937
sg512
F0.048140925613024493
sg513
F0.089151137598264513
sg514
F0.088622873800316027
sg515
F0.10752688614540465
sg516
F0.062019618585622757
sg517
F0.079668682393725695
sg518
F0.09388816960049276
sg519
F0.073093928866297037
sg520
F0.058368752385031031
sg521
F0.051696959730649687
sg522
F0.10869565276295959
sg523
F0.099367432636663561
sg524
F0.099508237932404695
sg525
F0.085036310671266296
sg526
F0.058369740612439484
sg527
F0.11111111111111112
sg528
F0.062019618585622771
sg529
F0.064775778045715937
sg530
F0.077561657415095353
sg531
F0.038854538181805447
sg532
F0.070969527664102486
sg533
F0.11111111111111113
sg534
F0.048666798988901999
sg535
F0.064703638455763726
sg536
F0.048623901654892721
sg537
F0.094172778959000142
sg538
F0.068876968299875635
sg539
F0.094202421283994614
sg540
F0.040254405905610982
sg541
F0.062019618585622771
sg542
F0.064828219675248419
sg543
F0.079650090764614059
sg544
F0.045963207937006999
sg545
F0.082051133030788342
sg546
F0.074948102040727965
sg547
F0.048602525684404166
sg548
F0.094133127153920776
sg549
F0.062019618585622757
sg550
F0.089151137598264513
sg551
F0.062019618585622764
sg552
F0.084300548271408898
sg553
F0.054803928842466078
sg554
F0.081970414902553787
sg555
F0.11111111111111112
sg556
F0.041574902723018878
sg557
F0.077449974159133017
sg558
F0.09417006886063764
sg559
F0.03603276144072208
sg560
F0.099367432636663561
sg561
F0.058334805360498891
sg562
F0.062019618585622764
sg563
F0.077524265805705858
sg564
F0.10509566935567255
sg565
F0.068876968299875635
sg566
F0.037036262780084976
sg567
F0.037826590492683165
sg568
F0.037476655859569677
sg569
F0.062019618585622778
sg570
F0.075252962036950477
sg571
F0.06675578186618733
sg572
F0.088622873800316027
sg573
F0.078793372282404142
sg574
F0.06213427902050285
sg575
F0.062019618585622764
sg576
F0.037610093277376008
sg577
F0.084300548271408898
sg578
F0.035381956826022569
sg579
F0.099516022199418436
sg580
F0.077196833901824774
sg581
F0.094172778959000142
sg582
F0.10752688614540465
sg583
F0.10309276068274746
sg584
F0.03461422067261969
sg585
F0.07532931128012485
sg586
F0.1111111111111111
sg587
F0.068375529226324255
sg588
F0.082885656924500936
sg589
F0.059167763754088165
sg590
F0.10526315479987429
sg591
F0.10204076599283833
sg592
F0.06501238765769958
sg593
F0.041792168552932663
sg594
F0.042922875944423705
sg595
F0.035211887336814546
sg596
F0.057837976295520524
sg597
F0.040417234907263719
sg598
F0.11111111111111113
sg599
F0.083539384788423182
sg600
F0.11111111111111113
sg601
F0.11111111111111112
sg602
F0.11111111111111113
sg603
F0.073046435657408704
sg604
F0.05141091571097392
sg605
F0.05625751688753354
sg606
F0.066876295781049089
sg607
F0.035118398702302302
sg608
F0.070969527664102486
sg609
F0.070916227906506091
sg610
F0.048627278352006635
sg611
F0.058334805360498891
sg612
F0.044300074677292779
sg613
F0.051699982124593036
sg614
F0.10638299717184034
sg615
F0.064605859326945111
sg616
F0.043437138097606839
sg617
F0.07143175308519395
sg618
F0.06675578186618733
sg619
F0.055649233933482603
sg620
F0.064103122692611231
sg621
F0.094197705612611163
sg622
F0.083539384788423182
sg623
F0.094172778959000142
sg624
F0.058369740612439484
sg625
F0.031791145375143694
sg626
F0.0786075352730813
sg627
F0.081970414902553787
sg628
F0.044370761903701109
sg629
F0.10204076599283833
sg630
F0.034604711841754711
sg631
F0.1111111111111111
sg632
F0.10101011111111112
sg633
F0.048627278352006635
sg634
L0L
sg635
F0.03755521596143762
sg636
F0.10256406821559212
sg637
F0.075382032994842488
sg638
F0.035549438301166511
sg639
F0.048652799906751101
sg640
F0.11111111111111113
sg641
F0.094133127153920776
sg642
F0.038991878270505813
sg643
L1L
sg644
F0.04875491084102955
sg645
F0.099496932302927332
sg646
F0.064605859326945111
sg647
F0.062019618585622778
sg648
F0.1111111111111111
sg649
F0.11111111111111112
sg650
F0.11111111111111112
sg651
F0.045708498398481026
sg652
F0.048735012629788528
sg653
F0.068876968299875635
sg654
F0.10989010821521109
sg655
F0.11111111111111113
sg656
F0.03603276144072208
sg657
F0.10869565276295959
sg658
F0.043118564113248589
sg659
F0.038664982059746639
sg660
F0.081056329657945903
sg661
F0.037688472200555136
sg662
F0.079688048257864935
sg663
F0.058372552450648887
sg664
F0.084278019103802504
sg665
F0.040289037898552371
sg666
F0.045708498398481026
sg667
F0.054947801142162245
sg668
F0.077400408331314091
sg669
F0.033757489728615017
sg670
F0.077400450852831051
sg671
F0.11111111111111112
sg672
F0.062019618585622757
sg673
F0.079480502250250995
sg674
F0.10362692829907269
sg675
F0.10050252723668149
sg676
F0.11111111111111113
sg677
F0.11111111111111113
sg678
F0.081973440227795721
sg679
I01
sg680
F0.09388816960049276
sa(dp688
g3
F0.090250116086208781
sg4
F0.091269220931890105
sg5
F0.11681264063095118
sg6
F0.114615193315632
sg7
F0.21157076560564364
sg8
F0.080667514278015218
sg9
F0.1111111111111111
sg10
F0.21550066330327922
sg11
F0.11270496883055695
sg12
F0.12995732781249469
sg13
F0.11111111111111112
sg14
F0.20471522841833578
sg15
F0.181318287033295
sg16
F0.16119472070857932
sg17
F0.1115753699849352
sg18
F0.13392705580138842
sg19
F0.11821712791000646
sg20
F0.11554135121739464
sg21
F0.21583911674557965
sg22
F0.11665776082046425
sg23
F0.11821712791000646
sg24
F0.2668266824481369
sg25
F0.079621247859854083
sg26
F0.11111111111111112
sg27
F0.15478777982543049
sg28
F0.22816223168406191
sg29
F0.11744546372954311
sg30
F0.13545835388707594
sg31
F0.23110832387321087
sg32
F0.12236182440060935
sg33
F0.21251569651907093
sg34
F0.21157076560564364
sg35
F0.19521704260122355
sg36
F0.12990620439690365
sg37
F0.1472510187070189
sg38
F0.065887972950927978
sg39
F0.19197437180758803
sg40
F0.1489773856573636
sg41
F0.11040162759878119
sg42
F0.062283891842916467
sg43
F0.21088177506632427
sg44
F0.24026072714742994
sg45
F0.19055286725909529
sg46
F0.14708635577608803
sg47
F0.11665776082046425
sg48
F0.21891206336390281
sg49
F0.21550066330327922
sg50
F0.06795697323690153
sg51
F0.21391965685270409
sg52
F0.053590454454101703
sg53
F0.11872155023323248
sg54
F0.12995732781249469
sg55
F0.16293041796593166
sg56
F0.10207616588251847
sg57
F0.1456609926271672
sg58
F0.1181287172162401
sg59
F0.22003680717006363
sg60
F0.1111111111111111
sg61
F0.13778381708295345
sg62
F0.23110832387321087
sg63
F0.11376743857712568
sg64
F0.14973429515800951
sg65
F0.11705364113609075
sg66
F0.19430030190256548
sg67
F0.23281390641161492
sg68
F0.16262727667276328
sg69
F0.14501533151339058
sg70
F0.21989304288821299
sg71
F0.20660873129513682
sg72
F0.12995732781249469
sg73
F0.20152285126080138
sg74
F0.29925441727411639
sg75
F0.24360520046004688
sg76
F0.1985436376959521
sg77
F0.19067786512002363
sg78
F0.2581953780984455
sg79
F0.12279164623375097
sg80
F0.14501533151339058
sg81
F0.11201601623271898
sg82
F0.23719438347815616
sg83
F0.11705364113609075
sg84
F0.22489504086003009
sg85
F0.12927616045296098
sg86
F0.18532999715305523
sg87
F0.1235550236578075
sg88
F0.2087423726822365
sg89
F0.11290124661170031
sg90
F0.067337457694519515
sg91
F0.19568744652200951
sg92
F0.16293041796593166
sg93
F0.20134277857904279
sg94
F0.20074580180735777
sg95
F0.11111111111111113
sg96
F0.094228240400457783
sg97
F0.11111111111111112
sg98
F0.21724437665492824
sg99
F0.11111111111111112
sg100
F0.06518302417555745
sg101
F0.21367967687097128
sg102
F0.29144992691534177
sg103
F0.22816223168406191
sg104
F0.20676358860293756
sg105
F0.20152285126080138
sg106
F0.14708635577608803
sg107
F0.19702601379275478
sg108
F0.11111111111111112
sg109
F0.10741372699953436
sg110
F0.18061478599690586
sg111
F0.2169622262149041
sg112
F0.20800485870214164
sg113
F0.21004548314134841
sg114
F0.1178332915251272
sg115
F0.21623432311265212
sg116
F0.23932034066885471
sg117
F0.11111111111111113
sg118
F0.14839872587968839
sg119
F0.18937091959651345
sg120
F0.11111111111111113
sg121
F0.18656197617624914
sg122
F0.11859712663495116
sg123
F0.16334566031934628
sg124
F0.21550066330327922
sg125
F0.05688187717489375
sg126
F0.13086762491551721
sg127
F0.061538489188125378
sg128
F0.19576670571802837
sg129
F0.23682856167273056
sg130
F0.12995732781249469
sg131
F0.22138730085893796
sg132
F0.064470337275983003
sg133
F0.24131081464583509
sg134
F0.080119620013748755
sg135
F0.22900860086735131
sg136
F0.14929864154073524
sg137
F0.13103803777631379
sg138
F0.21954765281837191
sg139
F0.1406831896444635
sg140
F0.13246668013533233
sg141
F0.13089373775992527
sg142
F0.19702601379275478
sg143
F0.12290392509430009
sg144
F0.11290124661170031
sg145
F0.19239889499868246
sg146
F0.11111111111111113
sg147
F0.21891206336390281
sg148
F0.18532999715305523
sg149
F0.11111111111111112
sg150
F0.16447687408321632
sg151
F0.21367967687097128
sg152
F0.14147907469383186
sg153
F0.20172004082447709
sg154
F0.29925441727411639
sg155
F0.11897330530672932
sg156
F0.12927616045296098
sg157
F0.23201046280523069
sg158
F0.11544512672626375
sg159
F0.11111111111111113
sg160
F0.078890782679708504
sg161
F0.05359045445410171
sg162
F0.11111111111111113
sg163
F0.17764203577319249
sg164
F0.21550066330327922
sg165
F0.19067786512002363
sg166
F0.1037167408920962
sg167
F0.11665776082046425
sg168
F0.1660215374593568
sg169
F0.15078063235968461
sg170
F0.22469094592513125
sg171
F0.2087423726822365
sg172
F0.21989304288821299
sg173
F0.21982933379011527
sg174
F0.18751355815117202
sg175
F0.11585356952068809
sg176
F0.14708635577608803
sg177
F0.22996936539540055
sg178
F0.17709416659342814
sg179
F0.12135309222584344
sg180
F0.23094460059816327
sg181
F0.11111111111111113
sg182
F0.05359045445410171
sg183
F0.233062854729675
sg184
F0.17764203577319249
sg185
F0.16262727667276328
sg186
F0.11709988998865546
sg187
F0.19239889499868246
sg188
F0.28344694562614986
sg189
F0.12990620439690365
sg190
F0.11681264063095118
sg191
F0.16119472070857932
sg192
F0.15368355177449539
sg193
L412L
sg194
F0.11859712663495116
sg195
F0.22387101285193145
sg196
F0.14708635577608803
sg197
F0.23477735329305557
sg198
F0.063749686521746646
sg199
F0.11744546372954311
sg200
F0.079621247859854083
sg201
F0.16549811663605934
sg202
F0.053590454454101703
sg203
F0.11111111111111112
sg204
F0.23477735329305557
sg205
F0.13669923655532729
sg206
F0.19521704260122355
sg207
F0.13258613289495871
sg208
F0.18061478599690586
sg209
F0.22762868151292218
sg210
F0.077993213675997514
sg211
F0.093078188918304633
sg212
F0.22849027227196
sg213
F0.067274796019687388
sg214
F0.13392705580138842
sg215
F0.11585356952068809
sg216
F0.19197437180758803
sg217
F0.20660873129513682
sg218
F0.05359045445410171
sg219
F0.05359045445410171
sg220
F0.14625718393032713
sg221
F0.19430030190256548
sg222
F0.19630315497844858
sg223
F0.11111111111111112
sg224
F0.29144992691534177
sg225
F0.11111111111111113
sg226
F0.053590454454101703
sg227
F0.20605863518541073
sg228
F0.21254395932054276
sg229
F0.11111111111111112
sg230
F0.16952571673040734
sg231
F0.053590454454101717
sg232
F0.13464528308571005
sg233
F0.21989304288821299
sg234
F0.11328621287736645
sg235
F0.1456609926271672
sg236
F0.11111111111111112
sg237
F0.22968864290031157
sg238
F0.11897330530672932
sg239
F0.17669076406539769
sg240
F0.28344694562614986
sg241
F0.19651341575233552
sg242
F0.11921074443590446
sg243
F0.079621247859854083
sg244
F0.22900860086735131
sg245
F0.055255759127860266
sg246
F0.22060662820090318
sg247
F0.17358945435387596
sg248
F0.11399511186226924
sg249
F0.14446232790068098
sg250
F0.22968864290031157
sg251
F0.19521704260122355
sg252
F0.14618143319011725
sg253
F0.20605863518541073
sg254
F0.21004548314134841
sg255
F0.17669076406539769
sg256
F0.13060561113880523
sg257
F0.14147907469383186
sg258
F0.21511391252133227
sg259
F0.13020170454451724
sg260
F0.23281390641161492
sg261
F0.11705364113609075
sg262
F0.11201601623271898
sg263
F0.11886018216268353
sg264
F0.058470178986822219
sg265
F0.17858656845985632
sg266
F0.114615193315632
sg267
F0.21245016855816484
sg268
F0.18937091959651345
sg269
F0.21511391252133227
sg270
F0.1111111111111111
sg271
F0.13778381708295345
sg272
F0.13963048541373885
sg273
F0.1178332915251272
sg274
F0.11625775870786134
sg275
F0.13089223185140272
sg276
F0.081594909350898137
sg277
F0.17463419755385251
sg278
F0.10075117271562151
sg279
F0.11111111111111112
sg280
F0.22762868151292218
sg281
F0.20215578029448958
sg282
F0.27524148937223791
sg283
F0.21367967687097128
sg284
F0.11111111111111112
sg285
F0.21088177506632427
sg286
F0.11111111111111113
sg287
F0.14728806266196504
sg288
F0.12571665913758309
sg289
F0.21245016855816484
sg290
F0.22323635197588099
sg291
F0.11544512672626375
sg292
F0.18656197617624914
sg293
F0.20989460465515877
sg294
F0.061538489188125378
sg295
F0.17669076406539769
sg296
F0.064470337275983003
sg297
F0.16447687408321632
sg298
F0.21803296615922158
sg299
F0.1623377496343579
sg300
F0.11821712791000646
sg301
F0.11491050581596657
sg302
F0.11111111111111112
sg303
F0.21982933379011527
sg304
F0.19055286725909529
sg305
F0.17463419755385251
sg306
F0.14839872587968839
sg307
F0.11111111111111113
sg308
F0.19528556991699639
sg309
F0.22466816130059231
sg310
F0.14354917466695041
sg311
F0.21088177506632427
sg312
F0.20437295622372376
sg313
F0.11111111111111112
sg314
F0.21724437665492824
sg315
F0.12219141456969917
sg316
F0.21367967687097128
sg317
F0.14756950884268233
sg318
F0.06518302417555745
sg319
F0.20172004082447709
sg320
F0.053590454454101703
sg321
F0.17669076406539769
sg322
F0.24934217225474564
sg323
F0.16262727667276328
sg324
F0.18987248976396773
sg325
F0.11544512672626375
sg326
F0.11897330530672932
sg327
F0.1127783397067095
sg328
F0.2017964320946839
sg329
F0.22762868151292218
sg330
F0.11111111111111112
sg331
F0.11625775870786134
sg332
F0.11111111111111113
sg333
F0.05359045445410171
sg334
F0.17709416659342814
sg335
F0.20596530615996272
sg336
F0.19521704260122355
sg337
F0.22246753734500882
sg338
F0.11585356952068809
sg339
F0.12135309222584344
sg340
F0.053590454454101703
sg341
F0.1111111111111111
sg342
F0.21989304288821299
sg343
F0.13089373775992527
sg344
F0.2581953780984455
sg345
F0.20172004082447709
sg346
F0.22387101285193145
sg347
F0.13060561113880523
sg348
F0.18057267975363334
sg349
F0.23932034066885471
sg350
F0.1406831896444635
sg351
F0.17358945435387596
sg352
F0.12571665913758309
sg353
F0.22489504086003009
sg354
F0.1349855593346784
sg355
F0.22849027227196
sg356
F0.067196877390272441
sg357
F0.12718748349008341
sg358
F0.11376743857712568
sg359
F0.22387101285193145
sg360
F0.053590454454101717
sg361
F0.11111111111111113
sg362
F0.14267820341340634
sg363
F0.12330242174602213
sg364
F0.14728806266196504
sg365
F0.27524148937223791
sg366
F0.13005753351512142
sg367
F0.17669076406539769
sg368
F0.14618143319011725
sg369
F0.13020170454451724
sg370
F0.11821712791000646
sg371
F0.22003680717006363
sg372
F0.11931619164067006
sg373
F0.05359045445410171
sg374
F0.22762868151292218
sg375
F0.11585356952068809
sg376
F0.067274796019687388
sg377
F0.14178088598526983
sg378
F0.091269220931890105
sg379
F0.20074580180735777
sg380
F0.20605863518541073
sg381
F0.11111111111111112
sg382
F0.233062854729675
sg383
F0.20036514129287036
sg384
F0.12950101335909256
sg385
F0.11111111111111113
sg386
F0.13973978737790343
sg387
F0.14756950884268233
sg388
F0.22168100026134627
sg389
F0.05359045445410171
sg390
F0.079870113017250666
sg391
F0.12995732781249469
sg392
F0.15059038712594291
sg393
F0.067079957067124968
sg394
F0.19702601379275478
sg395
F0.20074580180735777
sg396
F0.18937091959651345
sg397
F0.20068524919368463
sg398
F0.053590454454101703
sg399
F0.053590454454101717
sg400
F0.05688187717489375
sg401
F0.22762868151292218
sg402
F0.14834455745298419
sg403
F0.20748787230549492
sg404
F0.21550066330327922
sg405
F0.14708635577608803
sg406
F0.23110832387321087
sg407
F0.13545835388707594
sg408
F0.12808796355462967
sg409
F0.2169622262149041
sg410
F0.06002196969852195
sg411
F0.1111111111111111
sg412
F0.14147907469383186
sg413
L3L
sg414
F0.181318287033295
sg415
F0.20068524919368463
sg416
F0.11921074443590446
sg417
F0.12951768922533341
sg418
F0.20605863518541073
sg419
F0.17669076406539769
sg420
F0.15861014151790809
sg421
F0.053590454454101703
sg422
F0.068073874755720437
sg423
F0.16033442148207575
sg424
F0.21982933379011527
sg425
F0.058470178986822219
sg426
F0.11625775870786134
sg427
F0.05359045445410171
sg428
F0.19528556991699639
sg429
F0.22246753734500882
sg430
F0.21004548314134841
sg431
F0.12718748349008341
sg432
F0.15861014151790809
sg433
F0.11859712663495116
sg434
F0.20074580180735777
sg435
F0.13392705580138842
sg436
F0.063749686521746646
sg437
F0.11757615952222406
sg438
F0.18057267975363334
sg439
F0.06302091207702111
sg440
F0.23682856167273056
sg441
F0.20596530615996272
sg442
F0.2668266824481369
sg443
F0.12951768922533341
sg444
F0.092000203328229641
sg445
F0.14839872587968839
sg446
F0.21345355300340327
sg447
F0.14079205050912136
sg448
F0.21088177506632427
sg449
F0.11111111111111113
sg450
F0.12662923706155241
sg451
F0.091659916578323231
sg452
F0.13546404994209038
sg453
F0.23110832387321087
sg454
F0.20596530615996272
sg455
F0.1376136219212703
sg456
F0.20596530615996272
sg457
F0.067693934639614289
sg458
F0.22323635197588099
sg459
F0.24026072714742994
sg460
F0.066585170910696059
sg461
F0.092638848293520426
sg462
F0.1489773856573636
sg463
F0.22466816130059231
sg464
F0.114615193315632
sg465
F0.095048562040483536
sg466
F0.22582830340862525
sg467
F0.11111111111111113
sg468
F0.11625775870786134
sg469
F0.13005753351512142
sg470
F0.22582830340862525
sg471
F0.11208993811771377
sg472
F0.11111111111111113
sg473
F0.19576670571802837
sg474
F0.11111111111111112
sg475
F0.21982933379011527
sg476
F0.22996936539540055
sg477
F0.14357222161739325
sg478
F0.20676358860293756
sg479
F0.22469094592513125
sg480
F0.18937091959651345
sg481
F0.11744546372954311
sg482
F0.15885216595775256
sg483
F0.12727954227578131
sg484
F0.11040162759878119
sg485
F0.06631739343306442
sg486
F0.14858387173502668
sg487
F0.065887972950927978
sg488
F0.20596530615996272
sg489
F0.22180987028218874
sg490
F0.12995732781249469
sg491
F0.062283891842916467
sg492
F0.20172004082447709
sg493
F0.1111111111111111
sg494
F0.22246753734500882
sg495
F0.20134277857904279
sg496
F0.19197437180758803
sg497
F0.13715919590143572
sg498
F0.21088177506632427
sg499
F0.22166794022201439
sg500
F0.12951768922533341
sg501
F0.055255759127860266
sg502
F0.19651341575233552
sg503
F0.22168100026134627
sg504
F0.20074580180735777
sg505
F0.11111111111111112
sg506
F0.11201601623271898
sg507
F0.13103803777631379
sg508
F0.20800485870214164
sg509
F0.21251569651907093
sg510
F0.22762868151292218
sg511
F0.23110832387321087
sg512
F0.10075117271562151
sg513
F0.17912768211397667
sg514
F0.17463419755385251
sg515
F0.11376743857712568
sg516
F0.053590454454101696
sg517
F0.20437295622372376
sg518
F0.16119472070857932
sg519
F0.21550066330327922
sg520
F0.073313034510143482
sg521
F0.091269220931890105
sg522
F0.11290124661170031
sg523
F0.14618143319011725
sg524
F0.14929864154073524
sg525
F0.22138730085893796
sg526
F0.067079957067124968
sg527
F0.11111111111111112
sg528
F0.05359045445410171
sg529
F0.23110832387321087
sg530
F0.21391965685270409
sg531
F0.12630967314460467
sg532
F0.21982933379011527
sg533
F0.11111111111111113
sg534
F0.10725104115799125
sg535
F0.23201046280523069
sg536
F0.098480177881195896
sg537
F0.16262727667276328
sg538
F0.22387101285193145
sg539
F0.16549811663605934
sg540
F0.12990620439690365
sg541
F0.053590454454101717
sg542
F0.24131081464583509
sg543
F0.20215578029448958
sg544
F0.15101999250950723
sg545
F0.2017964320946839
sg546
F0.20471522841833578
sg547
F0.10261446025637994
sg548
F0.16039583780638089
sg549
F0.053590454454101703
sg550
F0.17912768211397667
sg551
F0.05359045445410171
sg552
F0.18937091959651345
sg553
F0.078890782679708504
sg554
F0.19521704260122355
sg555
F0.11111111111111112
sg556
F0.12571665913758309
sg557
F0.20596530615996272
sg558
F0.16334566031934628
sg559
F0.13434233432840614
sg560
F0.14618143319011725
sg561
F0.06666987507927262
sg562
F0.053590454454101703
sg563
F0.21254395932054276
sg564
F0.12951768922533341
sg565
F0.22387101285193145
sg566
F0.14475096829907658
sg567
F0.14914574122281932
sg568
F0.13086762491551721
sg569
F0.053590454454101717
sg570
F0.21088177506632427
sg571
F0.2169622262149041
sg572
F0.17463419755385251
sg573
F0.24934217225474564
sg574
F0.22246753734500882
sg575
F0.053590454454101703
sg576
F0.1389136594127757
sg577
F0.18937091959651345
sg578
F0.15807864846568373
sg579
F0.14834455745298419
sg580
F0.20036514129287036
sg581
F0.16262727667276328
sg582
F0.11376743857712568
sg583
F0.11705364113609075
sg584
F0.15229397878927248
sg585
F0.21803296615922158
sg586
F0.1111111111111111
sg587
F0.21583911674557965
sg588
F0.23094460059816327
sg589
F0.06002196969852195
sg590
F0.11544512672626375
sg591
F0.1178332915251272
sg592
F0.24360520046004688
sg593
F0.1323861033720343
sg594
F0.12135309222584344
sg595
F0.14501533151339058
sg596
F0.06302091207702111
sg597
F0.12330242174602213
sg598
F0.11111111111111113
sg599
F0.18656197617624914
sg600
F0.11111111111111113
sg601
F0.11111111111111112
sg602
F0.11111111111111113
sg603
F0.21623432311265212
sg604
F0.090250116086208781
sg605
F0.066585170910696059
sg606
F0.23719438347815616
sg607
F0.14628381180921138
sg608
F0.21982933379011527
sg609
F0.22060662820090318
sg610
F0.10207616588251847
sg611
F0.06666987507927262
sg612
F0.11681264063095118
sg613
F0.08869214125931478
sg614
F0.114615193315632
sg615
F0.23326787117815873
sg616
F0.11491050581596657
sg617
F0.21004548314134841
sg618
F0.2169622262149041
sg619
F0.06795697323690153
sg620
F0.22166794022201439
sg621
F0.1660215374593568
sg622
F0.18656197617624914
sg623
F0.16262727667276328
sg624
F0.067079957067124968
sg625
F0.14354917466695041
sg626
F0.19702601379275478
sg627
F0.19521704260122355
sg628
F0.12419494044466821
sg629
F0.1178332915251272
sg630
F0.1376136219212703
sg631
F0.1111111111111111
sg632
F0.11859712663495116
sg633
F0.10207616588251847
sg634
L3L
sg635
F0.12953625235418134
sg636
F0.11744546372954311
sg637
F0.21954765281837191
sg638
F0.23001957526531833
sg639
F0.10303810285724169
sg640
F0.11111111111111113
sg641
F0.16039583780638089
sg642
F0.13574849554593932
sg643
L0L
sg644
F0.13205385839162995
sg645
F0.14708635577608803
sg646
F0.23326787117815873
sg647
F0.053590454454101717
sg648
F0.1111111111111111
sg649
F0.11111111111111112
sg650
F0.11111111111111112
sg651
F0.11208993811771377
sg652
F0.10604261445517316
sg653
F0.22387101285193145
sg654
F0.11201601623271898
sg655
F0.11111111111111113
sg656
F0.13434233432840614
sg657
F0.11290124661170031
sg658
F0.12745498354449955
sg659
F0.20495037733750535
sg660
F0.19197437180758803
sg661
F0.13778381708295345
sg662
F0.20074580180735777
sg663
F0.068265443644397822
sg664
F0.18987248976396773
sg665
F0.13159674445852682
sg666
F0.11208993811771377
sg667
F0.082069058855350804
sg668
F0.20989460465515877
sg669
F0.13817003148133439
sg670
F0.20748787230549492
sg671
F0.11111111111111112
sg672
F0.053590454454101696
sg673
F0.19568744652200951
sg674
F0.11665776082046425
sg675
F0.11897330530672932
sg676
F0.11111111111111113
sg677
F0.11111111111111113
sg678
F0.1985436376959521
sg679
I01
sg680
F0.16119472070857932
sa.