ccopy_reg
_reconstructor
p1
(cnetworkx.classes.digraph
DiGraph
p2
c__builtin__
object
p3
NtRp4
(dp5
S'node'
p6
(dp7
L245274L
(dp8
S'classes'
p9
(lp10
(dp11
L3547668L
L6514L
sasS'starting'
p12
I01
ssL27615L
(dp13
g9
(lp14
(dp15
L3546308L
L15990L
sasg12
I01
ssL245276L
(dp16
g9
(lp17
(dp18
L3547668L
L6514L
sasg12
I01
ssL294294L
(dp19
g9
(lp20
(dp21
L3547668L
L6514L
sasg12
I01
ssL2487L
(dp22
g9
(lp23
(dp24
L3546119L
L4272L
sasg12
I01
sssS'node_dict_factory'
p25
c__builtin__
dict
p26
sS'edge_attr_dict_factory'
p27
g26
sS'succ'
p28
(dp29
L245274L
(dp30
L245276L
(dp31
S'p_o'
p32
F5.4336111339473716e-08
sS'IC_pred'
p33
cnumpy.core.multiarray
scalar
p34
(cnumpy
dtype
p35
(S'f8'
I0
I1
tRp36
(I3
S'<'
NNNI-1
I-1
I0
tbS'K\xdeJ\xcbD4\x13@'
tRp37
sS'TOT_CORR_classes_min'
p38
g34
(g36
S'NFp}\x1f\xf1\x1b@'
tRp39
sS'PMI_classes_max'
p40
I0
sS'w_join'
p41
g34
(g36
S'\x7f\xcf\xb0=c\xba0@'
tRp42
sS'w_ic_pmi'
p43
g34
(g36
S'K\xdeJ\xcbD4#@'
tRp44
sS'INTERACT_classes_min'
p45
I0
sS'prop'
p46
(lp47
L173L
asS'INTERACT_classes_max'
p48
I0
sS'TOT_CORR_classes_max'
p49
g34
(g36
S'NFp}\x1f\xf1\x1b@'
tRp50
sS'PMI_classes_min'
p51
I0
sS'IC_obj'
p52
g34
(g36
S'\x7f\xcf\xb0=c\xba0@'
tRp53
sS'w_comb'
p54
g34
(g36
S'\x12\x87\x83pt\x875@'
tRp55
sS'PMI_pred_obj'
p56
g34
(g36
S'K\xdeJ\xcbD4\x13@'
tRp57
ssL2487L
(dp58
g32
F1.8474277855421061e-06
sg33
g34
(g36
S'\xe7\x95\xd6\x8b\xa3=\x16@'
tRp59
sg38
g34
(g36
S'\xb0<p\xfaj\x86\x1e@'
tRp60
sg40
g34
(g36
S'.\xec\xa5`\x813\x04@'
tRp61
sg41
g34
(g36
S'\x82[\xf3ZGg*@'
tRp62
sg43
g34
(g36
S'\xe7\x95\xd6\x8b\xa3=&@'
tRp63
sg45
I0
sg46
(lp64
L241L
asg48
I0
sg49
g34
(g36
S'\xb0<p\xfaj\x86\x1e@'
tRp65
sg51
g34
(g36
S'.\xec\xa5`\x813\x04@'
tRp66
sg52
g34
(g36
S'\x81[\xf3ZGg*@'
tRp67
sg54
g34
(g36
S':So\x90\x0c\xc32@'
tRp68
sg56
g34
(g36
S'\xe7\x95\xd6\x8b\xa3=\x16@'
tRp69
sssL27615L
(dp70
L2487L
(dp71
g32
F1.8474277855421061e-06
sg33
g34
(g36
S'\xe7\x95\xd6\x8b\xa3=\x16@'
tRp72
sg38
g34
(g36
S'\xe5\x93\xe8\xea\xd2\x95\x1d@'
tRp73
sg40
g34
(g36
S'.\xec\xa5`\x813\x04@'
tRp74
sg41
g34
(g36
S'\x82[\xf3ZGg*@'
tRp75
sg43
g34
(g36
S'\xe7\x95\xd6\x8b\xa3=&@'
tRp76
sg45
I0
sg46
(lp77
L241L
asg48
I0
sg49
g34
(g36
S'\xe5\x93\xe8\xea\xd2\x95\x1d@'
tRp78
sg51
g34
(g36
S'.\xec\xa5`\x813\x04@'
tRp79
sg52
g34
(g36
S'\x81[\xf3ZGg*@'
tRp80
sg54
g34
(g36
S':So\x90\x0c\xc32@'
tRp81
sg56
g34
(g36
S'\xe7\x95\xd6\x8b\xa3=\x16@'
tRp82
sssL245276L
(dp83
L245274L
(dp84
g32
F3.80352779376316e-07
sg33
g34
(g36
S']|\xe3\xa0\xfc/\x13@'
tRp85
sg38
g34
(g36
S'TA\x9a$%\xaa\x1c@'
tRp86
sg40
g34
(g36
S'\x1f\x11\xb4~\xd1\xb7\xbb?'
tRp87
sg41
g34
(g36
S'\xb0\xfd\xb8%\xf1\x080@'
tRp88
sg43
g34
(g36
S'\xb1\xd4\x0c{\x92\xae @'
tRp89
sg45
I0
sg46
(lp90
L339L
asg48
I0
sg49
g34
(g36
S'TA\x9a$%\xaa\x1c@'
tRp91
sg51
g34
(g36
S'\x1f\x11\xb4~\xd1\xb7\xbb?'
tRp92
sg52
g34
(g36
S'\xb4S\x9b%x\x90-@'
tRp93
sg54
g34
(g36
S'\xf1\x88\x06;;\x943@'
tRp94
sg56
g34
(g36
S'\nZl\xaaPZ\x0c@'
tRp95
ssL27615L
(dp96
g32
F1.6300833401842113e-07
sg33
g34
(g36
S'K\xdeJ\xcbD4\x13@'
tRp97
sg38
g34
(g36
S'D\x1eI]#T\x14@'
tRp98
sg40
g34
(g36
S'\x15v&C(\xfc\xd6?'
tRp99
sg41
g34
(g36
S'\x7f\xcf\xb0=c\xba0@'
tRp100
sg43
g34
(g36
S'\xea=\xf5{\xc7\x01!@'
tRp101
sg45
I0
sg46
(lp102
L173L
asg48
I0
sg49
g34
(g36
S'D\x1eI]#T\x14@'
tRp103
sg51
g34
(g36
S'\x15v&C(\xfc\xd6?'
tRp104
sg52
g34
(g36
S'\x9d\xfe\x0b,IB/@'
tRp105
sg54
g34
(g36
S'\xe1\xb6\xd8\xc85n4@'
tRp106
sg56
g34
(g36
S'\x10;?Y\x94\x9e\r@'
tRp107
ssL2487L
(dp108
g32
F1.8474277855421061e-06
sg33
g34
(g36
S'\xe7\x95\xd6\x8b\xa3=\x16@'
tRp109
sg38
g34
(g36
S'\xb0<p\xfaj\x86\x1e@'
tRp110
sg40
g34
(g36
S'.\xec\xa5`\x813\x04@'
tRp111
sg41
g34
(g36
S'\x82[\xf3ZGg*@'
tRp112
sg43
g34
(g36
S'\xe7\x95\xd6\x8b\xa3=&@'
tRp113
sg45
I0
sg46
(lp114
L241L
asg48
I0
sg49
g34
(g36
S'\xb0<p\xfaj\x86\x1e@'
tRp115
sg51
g34
(g36
S'.\xec\xa5`\x813\x04@'
tRp116
sg52
g34
(g36
S'\x81[\xf3ZGg*@'
tRp117
sg54
g34
(g36
S':So\x90\x0c\xc32@'
tRp118
sg56
g34
(g36
S'\xe7\x95\xd6\x8b\xa3=\x16@'
tRp119
sssL294294L
(dp120
L2487L
(dp121
g32
F1.8474277855421061e-06
sg33
g34
(g36
S'\xe7\x95\xd6\x8b\xa3=\x16@'
tRp122
sg38
g34
(g36
S'\xb0<p\xfaj\x86\x1e@'
tRp123
sg40
g34
(g36
S'.\xec\xa5`\x813\x04@'
tRp124
sg41
g34
(g36
S'\x82[\xf3ZGg*@'
tRp125
sg43
g34
(g36
S'\xe7\x95\xd6\x8b\xa3=&@'
tRp126
sg45
I0
sg46
(lp127
L241L
asg48
I0
sg49
g34
(g36
S'\xb0<p\xfaj\x86\x1e@'
tRp128
sg51
g34
(g36
S'.\xec\xa5`\x813\x04@'
tRp129
sg52
g34
(g36
S'\x81[\xf3ZGg*@'
tRp130
sg54
g34
(g36
S':So\x90\x0c\xc32@'
tRp131
sg56
g34
(g36
S'\xe7\x95\xd6\x8b\xa3=\x16@'
tRp132
sssL2487L
(dp133
ssS'edge'
p134
g29
sS'graph'
p135
(dp136
sS'adjlist_dict_factory'
p137
g26
sS'adj'
p138
g29
sS'pred'
p139
(dp140
L245274L
(dp141
L245276L
g84
ssL27615L
(dp142
L245276L
g96
ssL245276L
(dp143
L245274L
g31
ssL294294L
(dp144
sL2487L
(dp145
L245274L
g58
sL245276L
g108
sL294294L
g121
sL27615L
g71
sssb.