ccopy_reg
_reconstructor
p1
(cnetworkx.classes.digraph
DiGraph
p2
c__builtin__
object
p3
NtRp4
(dp5
S'node'
p6
(dp7
sS'node_dict_factory'
p8
c__builtin__
dict
p9
sS'edge_attr_dict_factory'
p10
g9
sS'succ'
p11
(dp12
sS'edge'
p13
g12
sS'graph'
p14
(dp15
sS'adjlist_dict_factory'
p16
g9
sS'adj'
p17
g12
sS'pred'
p18
(dp19
sb.