(lp1
(dp2
S'rpr30 TOT_CORR_classes_min'
p3
F0.11115338554229012
sS'rpr30 TOT_CORR_spo'
p4
F0.12298749931617553
sS'rpr55 INTERACT_spo'
p5
F0.16982835717631056
sS'pr40 PMI_classes_min'
p6
F0.20000000000000001
sS'r70 w_join'
p7
F0.25953456937896963
sS'rpr20 PMI_pred_obj'
p8
F0.10098404919758158
sS'r10 INTERACT_classes_max'
p9
F0.20000000000000001
sS'r75 no_w'
p10
F0.25720568023985174
sS'rpr30 p_o'
p11
F0.089414220763904706
sS'r10 no_w'
p12
F0.21292313200000004
sS'pr20 INTERACT_classes_max'
p13
F0.20000000000000004
sS'r70 IC_obj'
p14
F0.26766594374358443
sS'pr40 IC_pred'
p15
F0.23569768916045958
sS'pr30 TOT_CORR_classes_min'
p16
F0.22275161717835842
sS'rpr55 IC_obj'
p17
F0.18050857775017534
sS'rpr75 TOT_CORR_spo'
p18
F0.19677347807525794
sS'pr85 PMI_classes_min'
p19
F0.20000000000000001
sS'rpr60 IC_obj'
p20
F0.18892338120991184
sS'r85 IC_obj'
p21
F0.27406838497741348
sS'r65 PMI_classes_max'
p22
F0.20000000000000001
sS'r85 PMI_classes_min'
p23
F0.20000000000000001
sS'pr75 p_o'
p24
F0.18355136660112664
sS'rpr20 no_w'
p25
F0.099221201191285857
sS'pr40 INTERACT_classes_min'
p26
F0.20000000000000001
sS'rpr90 w_ic_pmi'
p27
F0.20628864243565084
sS'r80 w_ic_pmi'
p28
F0.25416074901720132
sS'pr75 PMI_classes_min'
p29
F0.20000000000000001
sS'pr10 p_o'
p30
F0.2030278369043779
sS'r95 no_w'
p31
F0.26133869253769981
sS'rpr55 w_ic_pmi'
p32
F0.16615425397384556
sS'pr70 w_comb'
p33
F0.25983301619209936
sS'pr70 w_join'
p34
F0.25953456937896963
sS'pr55 INTERACT_spo'
p35
F0.24943554191799949
sS'rpr70 INTERACT_spo'
p36
F0.19078709225236731
sS'rpr90 w_comb'
p37
F0.21781278818865182
sS'rpr80 PMI_classes_max'
p38
F0.041115162315204519
sS'pr55 TOT_CORR_classes_min'
p39
F0.23011465516461188
sS'r20 w_ic_pmi'
p40
F0.22276006720996794
sS'rpr50 TOT_CORR_classes_max'
p41
F0.14082049953360251
sS'rpr55 PMI_classes_min'
p42
F0.041115162315204519
sS'pr70 no_w'
p43
F0.25564148820302318
sS'r60 p_o'
p44
F0.19185018642276191
sS'r50 w_comb'
p45
F0.24987711343156027
sS'pr20 INTERACT_spo'
p46
F0.22385506910720004
sS'r65 PMI_classes_min'
p47
F0.20000000000000001
sS'pr90 IC_obj'
p48
F0.27576578544808972
sS'pr75 TOT_CORR_spo'
p49
F0.25720568023985174
sS'rpr95 PMI_classes_min'
p50
F0.041115162315204519
sS'pr65 IC_pred'
p51
F0.24594481152422049
sS'rpr20 INTERACT_classes_max'
p52
F0.041115162315204519
sS'rpr50 IC_pred'
p53
F0.15479113571861475
sS'r10 INTERACT_spo'
p54
F0.21292313200000004
sS'pr30 w_join'
p55
F0.23477560308767026
sS'rpr40 INTERACT_spo'
p56
F0.14372002719502908
sS'r20 IC_obj'
p57
F0.2274601139255546
sS'rpr55 w_comb'
p58
F0.17349251049558712
sS'r75 PMI_pred_obj'
p59
F0.26276686992831177
sS'pr30 INTERACT_classes_max'
p60
F0.19999999999999998
sS'rpr80 TOT_CORR_spo'
p61
F0.20230830075917322
sS'pr95 no_w'
p62
F0.26133869253769981
sS'pr30 PMI_classes_max'
p63
F0.19999999999999998
sS'rpr95 w_join'
p64
F0.22206605992903683
sS'pr70 PMI_classes_min'
p65
F0.20000000000000001
sS'pr50 w_ic_pmi'
p66
F0.24402324990729088
sS'r85 w_ic_pmi'
p67
F0.25503653488797634
sS'pr30 no_w'
p68
F0.23301821772744197
sS'rpr90 no_w'
p69
F0.21212010340532059
sS'r90 TOT_CORR_classes_min'
p70
F0.22995046321363438
sS'r65 w_join'
p71
F0.25747292706496488
sS'pr10 INTERACT_spo'
p72
F0.21292313200000004
sS'r40 p_o'
p73
F0.2003110869229161
sS'pr95 p_o'
p74
F0.17115754504992189
sS'pr95 IC_pred'
p75
F0.25013174553697626
sS'pr55 PMI_pred_obj'
p76
F0.25361178595036649
sS'pr55 IC_obj'
p77
F0.25901117449870981
sS'r70 p_o'
p78
F0.18644849498698673
sS'rpr60 w_comb'
p79
F0.1813066914170523
sS'rpr90 TOT_CORR_spo'
p80
F0.21212010340532059
sS'r10 PMI_classes_max'
p81
F0.20000000000000001
sS'pr90 w_ic_pmi'
p82
F0.25572027408622794
sS'r70 PMI_classes_max'
p83
F0.20000000000000001
sS'r75 IC_pred'
p84
F0.2481726731027008
sS'pr10 IC_obj'
p85
F0.21474963033772623
sS'r50 IC_obj'
p86
F0.25555338180233816
sS'rpr60 PMI_pred_obj'
p87
F0.18175124984642646
sS'r75 IC_obj'
p88
F0.27003151904601469
sS'r20 PMI_classes_min'
p89
F0.20000000000000004
sS'rpr10 w_comb'
p90
F0.072813981632080277
sS'pr60 IC_obj'
p91
F0.26217135992079671
sS'r30 w_join'
p92
F0.23477560308767026
sS'pr60 w_join'
p93
F0.25515017260023909
sS'r60 INTERACT_spo'
p94
F0.25177091975920385
sS'r70 INTERACT_classes_min'
p95
F0.20000000000000001
sS'rpr30 w_ic_pmi'
p96
F0.12100576861709549
sS'r50 INTERACT_classes_min'
p97
F0.20000000000000001
sS'pr75 w_comb'
p98
F0.26167138027443859
sS'pr80 INTERACT_classes_min'
p99
F0.20000000000000001
sS'rpr75 PMI_classes_min'
p100
F0.041115162315204519
sS'pr80 TOT_CORR_classes_min'
p101
F0.23088573608089408
sS'pr90 p_o'
p102
F0.17433871505257711
sS'pr80 w_ic_pmi'
p103
F0.25416074901720132
sS'r60 w_ic_pmi'
p104
F0.24843603331489703
sS'pr40 p_o'
p105
F0.2003110869229161
sS'r20 no_w'
p106
F0.22385506910720004
sS'r60 TOT_CORR_classes_max'
p107
F0.23070031743693553
sS'r20 INTERACT_classes_min'
p108
F0.20000000000000004
sS'rpr50 IC_obj'
p109
F0.17151348409554837
sS'pr30 p_o'
p110
F0.20285123918683035
sS'pr85 TOT_CORR_classes_max'
p111
F0.23048896403029198
sS'pr60 IC_pred'
p112
F0.24446472348287238
sS'pr75 TOT_CORR_classes_max'
p113
F0.23112242742496136
sS'pr80 PMI_classes_min'
p114
F0.20000000000000001
sS'r75 w_join'
p115
F0.26135180063708408
sS'pr90 IC_pred'
p116
F0.24991981902577576
sS'pr85 INTERACT_classes_max'
p117
F0.20000000000000001
sS'rpr95 no_w'
p118
F0.21644466698645082
sS'r50 no_w'
p119
F0.24680870029570315
sS'pr90 INTERACT_classes_min'
p120
F0.20000000000000001
sS'r50 TOT_CORR_classes_max'
p121
F0.22926908438864871
sS'pr90 PMI_classes_max'
p122
F0.20000000000000001
sS'r30 w_comb'
p123
F0.23491323923946383
sS'pr75 no_w'
p124
F0.25720568023985174
sS'rpr20 PMI_classes_min'
p125
F0.041115162315204519
sS'rpr75 TOT_CORR_classes_max'
p126
F0.1642083809130731
sS'rpr50 PMI_classes_min'
p127
F0.041115162315204519
sS'pr55 w_join'
p128
F0.25255190694764962
sS'r95 PMI_pred_obj'
p129
F0.26827760745881973
sS'r10 TOT_CORR_spo'
p130
F0.21292313200000004
sS'pr50 p_o'
p131
F0.19655227985268919
sS'rpr70 PMI_classes_max'
p132
F0.041115162315204519
sS'r95 w_ic_pmi'
p133
F0.25622152341131615
sS'rpr20 w_comb'
p134
F0.10067067549245468
sS'pr85 PMI_pred_obj'
p135
F0.26592224103206707
sS'r20 IC_pred'
p136
F0.22139257651384289
sS'r10 IC_pred'
p137
F0.21169207159561751
sS'pr70 IC_pred'
p138
F0.24717565905548872
sS'rpr90 TOT_CORR_classes_max'
p139
F0.17290102024250856
sS'rpr70 PMI_pred_obj'
p140
F0.19585201406078021
sS'r10 w_ic_pmi'
p141
F0.21238413148723664
sS'pr60 TOT_CORR_classes_min'
p142
F0.23070031743693553
sS'rpr70 IC_obj'
p143
F0.20414092848474291
sS'pr20 PMI_classes_min'
p144
F0.20000000000000004
sS'pr50 PMI_pred_obj'
p145
F0.25063749163688609
sS'r60 INTERACT_classes_min'
p146
F0.20000000000000001
sS'r90 IC_obj'
p147
F0.27576578544808972
sS'pr50 IC_obj'
p148
F0.25555338180233816
sS'r40 INTERACT_classes_max'
p149
F0.20000000000000001
sS'pr30 PMI_pred_obj'
p150
F0.23542667748016172
sS'r80 TOT_CORR_classes_min'
p151
F0.23088573608089408
sS'rpr85 TOT_CORR_spo'
p152
F0.20741475719391783
sS'pr65 TOT_CORR_classes_max'
p153
F0.23104941934193091
sS'r95 p_o'
p154
F0.17115754504992189
sS'pr95 PMI_classes_min'
p155
F0.20000000000000001
sS'r10 IC_obj'
p156
F0.21474963033772623
sS'pr95 w_join'
p157
F0.26645678079109486
sS'pr50 PMI_classes_min'
p158
F0.20000000000000001
sS'pr60 INTERACT_classes_min'
p159
F0.20000000000000001
sS'rpr20 TOT_CORR_classes_max'
p160
F0.091613418303076941
sS'rpr10 INTERACT_classes_max'
p161
F0.041115162315204519
sS'r85 INTERACT_classes_min'
p162
F0.20000000000000001
sS'pr40 w_comb'
p163
F0.24309852830551776
sS'r75 TOT_CORR_spo'
p164
F0.25720568023985174
sS'r55 IC_obj'
p165
F0.25901117449870981
sS'rpr40 PMI_pred_obj'
p166
F0.14684648612353288
sS'pr65 PMI_classes_min'
p167
F0.20000000000000001
sS'r30 IC_pred'
p168
F0.22932684173200379
sS'rpr95 w_comb'
p169
F0.22241700390838615
sS'r85 w_join'
p170
F0.26431084095622992
sS'pr75 IC_obj'
p171
F0.27003151904601469
sS'pr90 TOT_CORR_classes_min'
p172
F0.22995046321363438
sS'pr80 no_w'
p173
F0.25854561720559321
sS'rpr70 p_o'
p174
F0.114773261966092
sS'pr55 PMI_classes_max'
p175
F0.20000000000000001
sS'pr20 no_w'
p176
F0.22385506910720004
sS'pr80 IC_pred'
p177
F0.24895373471976961
sS'r40 w_join'
p178
F0.24292116979376582
sS'rpr60 no_w'
p179
F0.17734334033255486
sS'r55 p_o'
p180
F0.19430328527036103
sS'r95 INTERACT_classes_min'
p181
F0.20000000000000001
sS'rpr65 INTERACT_classes_max'
p182
F0.041115162315204519
sS'r90 PMI_pred_obj'
p183
F0.26719472883532946
sS'r40 w_comb'
p184
F0.24309852830551776
sS'r30 INTERACT_spo'
p185
F0.23301821772744197
sS'rpr50 w_ic_pmi'
p186
F0.1584000298285993
sS'r50 PMI_pred_obj'
p187
F0.25063749163688609
sS'pr85 p_o'
p188
F0.17747683904013045
sS'rpr70 no_w'
p189
F0.19078709225236731
sS'rpr55 TOT_CORR_spo'
p190
F0.16982835717631056
sS'pr30 TOT_CORR_classes_max'
p191
F0.22275161717835842
sS'rpr85 IC_pred'
p192
F0.19590634827152051
sS'entity'
p193
L34752L
sS'r90 PMI_classes_min'
p194
F0.20000000000000001
sS'pr85 no_w'
p195
F0.25967112517571755
sS'r20 TOT_CORR_spo'
p196
F0.22385506910720004
sS'r85 IC_pred'
p197
F0.24953068703000789
sS'rpr65 PMI_classes_max'
p198
F0.041115162315204519
sS'pr75 PMI_classes_max'
p199
F0.20000000000000001
sS'rpr20 INTERACT_spo'
p200
F0.099221201191285857
sS'r30 w_ic_pmi'
p201
F0.23135866597748739
sS'rpr55 INTERACT_classes_max'
p202
F0.041115162315204519
sS'pr40 INTERACT_classes_max'
p203
F0.20000000000000001
sS'pr85 IC_pred'
p204
F0.24953068703000789
sS'rpr75 PMI_pred_obj'
p205
F0.20217548167389246
sS'pr55 no_w'
p206
F0.24943554191799949
sS'rpr85 IC_obj'
p207
F0.2233631266366238
sS'r30 p_o'
p208
F0.20285123918683035
sS'r90 INTERACT_spo'
p209
F0.26059927740214173
sS'rpr20 IC_obj'
p210
F0.10332499524545374
sS'rpr20 p_o'
p211
F0.076756591049282369
sS'pr90 w_join'
p212
F0.26548014230115974
sS'rpr90 PMI_classes_min'
p213
F0.041115162315204519
sS'rpr75 INTERACT_spo'
p214
F0.19677347807525794
sS'r55 PMI_classes_max'
p215
F0.20000000000000001
sS'pr55 TOT_CORR_classes_max'
p216
F0.23011465516461188
sS'pr65 w_join'
p217
F0.25747292706496488
sS'rpr85 INTERACT_classes_min'
p218
F0.041115162315204519
sS'rpr90 INTERACT_classes_min'
p219
F0.041115162315204519
sS'rpr80 w_ic_pmi'
p220
F0.19705785961053118
sS'r50 w_ic_pmi'
p221
F0.24402324990729088
sS'rpr75 p_o'
p222
F0.11584432687408885
sS'r55 INTERACT_classes_min'
p223
F0.20000000000000001
sS'r90 p_o'
p224
F0.17433871505257711
sS'pr95 INTERACT_classes_min'
p225
F0.20000000000000001
sS'rpr40 INTERACT_classes_min'
p226
F0.041115162315204519
sS'r70 TOT_CORR_classes_max'
p227
F0.23118276357205891
sS'r65 w_ic_pmi'
p228
F0.25023040160775945
sS'pr50 INTERACT_classes_min'
p229
F0.20000000000000001
sS'rpr60 p_o'
p230
F0.11148050022607912
sS'rpr95 INTERACT_classes_min'
p231
F0.041115162315204519
sS'rpr65 IC_pred'
p232
F0.17536840462615916
sS'r90 TOT_CORR_classes_max'
p233
F0.22995046321363438
sS'rpr50 w_comb'
p234
F0.16510389826208804
sS'pr20 IC_obj'
p235
F0.2274601139255546
sS'r80 INTERACT_classes_max'
p236
F0.20000000000000001
sS'pr90 w_comb'
p237
F0.26586506445623825
sS'r95 PMI_classes_max'
p238
F0.20000000000000001
sS'r40 TOT_CORR_spo'
p239
F0.24061021888315393
sS'r85 p_o'
p240
F0.17747683904013045
sS'pr55 w_comb'
p241
F0.25278880295304862
sS'rpr60 TOT_CORR_classes_max'
p242
F0.15173586581235149
sS'rpr20 TOT_CORR_spo'
p243
F0.099221201191285857
sS'r85 PMI_pred_obj'
p244
F0.26592224103206707
sS'rpr10 PMI_classes_max'
p245
F0.041115162315204519
sS'pr80 w_join'
p246
F0.26294038153509569
sS'r40 IC_obj'
p247
F0.24767026707065795
sS'rpr50 PMI_pred_obj'
p248
F0.16550712512758126
sS'rpr75 IC_pred'
p249
F0.18652574908204422
sS'r90 w_comb'
p250
F0.26586506445623825
sS'r55 INTERACT_spo'
p251
F0.24943554191799949
sS'r20 TOT_CORR_classes_min'
p252
F0.21718360293539762
sS'pr70 TOT_CORR_classes_max'
p253
F0.23118276357205891
sS'r75 TOT_CORR_classes_min'
p254
F0.23112242742496136
sS'r40 no_w'
p255
F0.24061021888315393
sS'r10 PMI_pred_obj'
p256
F0.21379206096496353
sS'rpr85 INTERACT_spo'
p257
F0.20741475719391783
sS'r70 PMI_pred_obj'
p258
F0.26085643555271815
sS'r10 w_comb'
p259
F0.213579887689719
sS'pr85 w_ic_pmi'
p260
F0.25503653488797634
sS'r70 PMI_classes_min'
p261
F0.20000000000000001
sS'r10 PMI_classes_min'
p262
F0.20000000000000001
sS'rpr55 PMI_pred_obj'
p263
F0.17391339528483973
sS'rpr30 PMI_classes_min'
p264
F0.041115162315204519
sS'rpr65 p_o'
p265
F0.11333087191216924
sS'pr40 PMI_classes_max'
p266
F0.20000000000000001
sS'pr80 IC_obj'
p267
F0.27216048283925082
sS'pr50 no_w'
p268
F0.24680870029570315
sS'pr70 PMI_pred_obj'
p269
F0.26085643555271815
sS'r10 INTERACT_classes_min'
p270
F0.20000000000000001
sS'rpr80 no_w'
p271
F0.20230830075917322
sS'rpr70 IC_pred'
p272
F0.1811835753916087
sS'r80 PMI_classes_max'
p273
F0.20000000000000001
sS'pr60 PMI_classes_max'
p274
F0.20000000000000001
sS'rpr70 w_join'
p275
F0.19509530169644063
sS'rpr20 w_ic_pmi'
p276
F0.097920919219217861
sS'pr40 TOT_CORR_classes_min'
p277
F0.22669477753246031
sS'rpr40 TOT_CORR_classes_min'
p278
F0.12742107986434059
sS'r20 INTERACT_classes_max'
p279
F0.20000000000000004
sS'pr90 no_w'
p280
F0.26059927740214173
sS'pr60 w_comb'
p281
F0.25540728853445716
sS'pr80 p_o'
p282
F0.18055315091102336
sS'pr80 TOT_CORR_classes_max'
p283
F0.23088573608089408
sS'pr80 INTERACT_classes_max'
p284
F0.20000000000000001
sS'r70 no_w'
p285
F0.25564148820302318
sS'pr90 INTERACT_classes_max'
p286
F0.20000000000000001
sS'pr20 w_join'
p287
F0.22504468655158377
sS'rpr65 INTERACT_spo'
p288
F0.18431919535245689
sS'r80 IC_obj'
p289
F0.27216048283925082
sS'pr75 w_ic_pmi'
p290
F0.25307622186664597
sS'r50 PMI_classes_max'
p291
F0.20000000000000001
sS'pr50 TOT_CORR_classes_min'
p292
F0.22926908438864871
sS'r65 PMI_pred_obj'
p293
F0.25870474221898032
sS'rpr50 PMI_classes_max'
p294
F0.041115162315204519
sS'r40 INTERACT_spo'
p295
F0.24061021888315393
sS'rpr70 PMI_classes_min'
p296
F0.041115162315204519
sS'r30 PMI_pred_obj'
p297
F0.23542667748016172
sS'r70 w_ic_pmi'
p298
F0.25177217895518988
sS'rpr95 IC_pred'
p299
F0.20371718925983001
sS'r85 PMI_classes_max'
p300
F0.20000000000000001
sS'rpr55 TOT_CORR_classes_min'
p301
F0.14656624988261296
sS'pr55 INTERACT_classes_min'
p302
F0.20000000000000001
sS'r80 TOT_CORR_spo'
p303
F0.25854561720559321
sS'pr50 w_comb'
p304
F0.24987711343156027
sS'r40 TOT_CORR_classes_min'
p305
F0.22669477753246031
sS'rpr95 TOT_CORR_spo'
p306
F0.21644466698645082
sS'r90 INTERACT_classes_min'
p307
F0.20000000000000001
sS'pr50 IC_pred'
p308
F0.24068888482494832
sS'r80 PMI_pred_obj'
p309
F0.26445205446885106
sS'rpr95 TOT_CORR_classes_min'
p310
F0.17510997994635277
sS'r70 INTERACT_spo'
p311
F0.25564148820302318
sS'pr60 PMI_pred_obj'
p312
F0.25629469686473055
sS'pr75 INTERACT_classes_min'
p313
F0.20000000000000001
sS'r75 w_comb'
p314
F0.26167138027443859
sS'rpr60 w_join'
p315
F0.18109875547681389
sS'r80 TOT_CORR_classes_max'
p316
F0.23088573608089408
sS'r20 w_comb'
p317
F0.22514104996211651
sS'rpr75 PMI_classes_max'
p318
F0.041115162315204519
sS'pr65 TOT_CORR_classes_min'
p319
F0.23104941934193091
sS'rpr75 INTERACT_classes_max'
p320
F0.041115162315204519
sS'pr40 TOT_CORR_spo'
p321
F0.24061021888315393
sS'pr65 p_o'
p322
F0.18922308983256936
sS'r30 no_w'
p323
F0.23301821772744197
sS'r50 w_join'
p324
F0.24966019639008971
sS'pr50 PMI_classes_max'
p325
F0.20000000000000001
sS'pr95 PMI_classes_max'
p326
F0.20000000000000001
sS'rpr50 w_join'
p327
F0.16492659816093705
sS'r55 IC_pred'
p328
F0.24271937451482536
sS'r90 no_w'
p329
F0.26059927740214173
sS'r80 INTERACT_classes_min'
p330
F0.20000000000000001
sS'r60 PMI_classes_max'
p331
F0.20000000000000001
sS'r95 INTERACT_classes_max'
p332
F0.20000000000000001
sS'rpr65 INTERACT_classes_min'
p333
F0.041115162315204519
sS'pr40 w_join'
p334
F0.24292116979376582
sS'r65 no_w'
p335
F0.25383465387487658
sS'pr55 TOT_CORR_spo'
p336
F0.24943554191799949
sS'r95 TOT_CORR_classes_max'
p337
F0.22928132180650557
sS'pr55 PMI_classes_min'
p338
F0.20000000000000001
sS'rpr60 INTERACT_spo'
p339
F0.17734334033255486
sS'rpr75 INTERACT_classes_min'
p340
F0.041115162315204519
sS'pr0'
p341
F0.20000000000000001
sS'pr90 TOT_CORR_classes_max'
p342
F0.22995046321363438
sS'pr10 w_ic_pmi'
p343
F0.21238413148723664
sS'pr70 p_o'
p344
F0.18644849498698673
sS'r65 TOT_CORR_classes_max'
p345
F0.23104941934193091
sS'r85 INTERACT_spo'
p346
F0.25967112517571755
sS'pr10 PMI_pred_obj'
p347
F0.21379206096496353
sS'r40 w_ic_pmi'
p348
F0.2383850592316174
sS'r90 IC_pred'
p349
F0.24991981902577576
sS'rpr90 TOT_CORR_classes_min'
p350
F0.17290102024250856
sS'pr40 IC_obj'
p351
F0.24767026707065795
sS'rpr65 no_w'
p352
F0.18431919535245689
sS'pr75 IC_pred'
p353
F0.2481726731027008
sS'rpr75 w_join'
p354
F0.20135245932349449
sS'r90 w_join'
p355
F0.26548014230115974
sS'rpr10 w_join'
p356
F0.072759916707383687
sS'rpr70 TOT_CORR_classes_max'
p357
F0.16051832248330927
sS'r30 PMI_classes_min'
p358
F0.19999999999999998
sS'r85 no_w'
p359
F0.25967112517571755
sS'rpr80 INTERACT_classes_min'
p360
F0.041115162315204519
sS'pr70 INTERACT_classes_max'
p361
F0.20000000000000001
sS'rpr85 w_join'
p362
F0.21252395847881914
sS'rpr65 TOT_CORR_classes_max'
p363
F0.15637284940546398
sS'r20 w_join'
p364
F0.22504468655158377
sS'r80 p_o'
p365
F0.18055315091102336
sS'pr10 w_join'
p366
F0.21352840748452701
sS'pr40 no_w'
p367
F0.24061021888315393
sS'pr20 TOT_CORR_classes_min'
p368
F0.21718360293539762
sS'pr10 w_comb'
p369
F0.213579887689719
sS'pr85 PMI_classes_max'
p370
F0.20000000000000001
sS'pr75 PMI_pred_obj'
p371
F0.26276686992831177
sS'rpr65 IC_obj'
p372
F0.19679051019633553
sS'rpr60 INTERACT_classes_max'
p373
F0.041115162315204519
sS'pr90 TOT_CORR_spo'
p374
F0.26059927740214173
sS'r55 PMI_classes_min'
p375
F0.20000000000000001
sS'rpr90 PMI_classes_max'
p376
F0.041115162315204519
sS'rpr75 w_ic_pmi'
p377
F0.19182497220712699
sS'rpr30 INTERACT_spo'
p378
F0.12298749931617553
sS'r60 no_w'
p379
F0.25177091975920385
sS'r70 TOT_CORR_classes_min'
p380
F0.23118276357205891
sS'r55 INTERACT_classes_max'
p381
F0.20000000000000001
sS'pr90 PMI_pred_obj'
p382
F0.26719472883532946
sS'r65 IC_obj'
p383
F0.2650517748808941
sS'rpr60 IC_pred'
p384
F0.1690531665654805
sS'pr95 INTERACT_classes_max'
p385
F0.20000000000000001
sS'rpr80 w_comb'
p386
F0.20743619588540863
sS'pr20 w_comb'
p387
F0.22514104996211651
sS'pr80 w_comb'
p388
F0.2632814522897215
sS'rpr90 INTERACT_classes_max'
p389
F0.041115162315204519
sS'rpr20 w_join'
p390
F0.10057827411178727
sS'pr10 no_w'
p391
F0.21292313200000004
sS'rpr85 w_ic_pmi'
p392
F0.20186992748163343
sS'rpr10 INTERACT_spo'
p393
F0.072063524180888794
sS'pr60 TOT_CORR_classes_max'
p394
F0.23070031743693553
sS'pr60 INTERACT_spo'
p395
F0.25177091975920385
sS'pr50 INTERACT_spo'
p396
F0.24680870029570315
sS'pr55 w_ic_pmi'
p397
F0.24637366883632186
sS'rpr40 INTERACT_classes_max'
p398
F0.041115162315204519
sS'rpr70 INTERACT_classes_max'
p399
F0.041115162315204519
sS'rpr20 PMI_classes_max'
p400
F0.041115162315204519
sS'r90 TOT_CORR_spo'
p401
F0.26059927740214173
sS'pr20 PMI_pred_obj'
p402
F0.22551748981098868
sS'r65 w_comb'
p403
F0.25775056859217327
sS'r75 INTERACT_spo'
p404
F0.25720568023985174
sS'r20 INTERACT_spo'
p405
F0.22385506910720004
sS'pr95 INTERACT_spo'
p406
F0.26133869253769981
sS'r10 p_o'
p407
F0.2030278369043779
sS'rpr65 PMI_pred_obj'
p408
F0.18905285986263484
sS'r85 TOT_CORR_classes_min'
p409
F0.23048896403029198
sS'rpr40 PMI_classes_min'
p410
F0.041115162315204519
sS'pr10 INTERACT_classes_max'
p411
F0.20000000000000001
sS'rpr85 no_w'
p412
F0.20741475719391783
sS'degree'
p413
L4L
sS'r40 IC_pred'
p414
F0.23569768916045958
sS'r55 w_ic_pmi'
p415
F0.24637366883632186
sS'rpr60 TOT_CORR_classes_min'
p416
F0.15173586581235149
sS'r10 TOT_CORR_classes_max'
p417
F0.20970406005427769
sS'pr70 TOT_CORR_classes_min'
p418
F0.23118276357205891
sS'pr40 INTERACT_spo'
p419
F0.24061021888315393
sS'r20 p_o'
p420
F0.20386575128020673
sS'rpr50 INTERACT_classes_min'
p421
F0.041115162315204519
sS'rpr10 w_ic_pmi'
p422
F0.071429169400543405
sS'rpr55 p_o'
p423
F0.10918203752003001
sS'pr80 TOT_CORR_spo'
p424
F0.25854561720559321
sS'rpr30 PMI_classes_max'
p425
F0.041115162315204519
sS'pr60 PMI_classes_min'
p426
F0.20000000000000001
sS'rpr10 INTERACT_classes_min'
p427
F0.041115162315204519
sS'r50 IC_pred'
p428
F0.24068888482494832
sS'pr95 TOT_CORR_classes_max'
p429
F0.22928132180650557
sS'r75 TOT_CORR_classes_max'
p430
F0.23112242742496136
sS'rpr70 TOT_CORR_classes_min'
p431
F0.16051832248330927
sS'pr20 p_o'
p432
F0.20386575128020673
sS'r90 PMI_classes_max'
p433
F0.20000000000000001
sS'pr60 TOT_CORR_spo'
p434
F0.25177091975920385
sS'rpr75 no_w'
p435
F0.19677347807525794
sS'rpr65 PMI_classes_min'
p436
F0.041115162315204519
sS'rpr55 w_join'
p437
F0.17330035658099727
sS'pr40 w_ic_pmi'
p438
F0.2383850592316174
sS'rpr60 PMI_classes_min'
p439
F0.041115162315204519
sS'pr95 PMI_pred_obj'
p440
F0.26827760745881973
sS'r65 TOT_CORR_spo'
p441
F0.25383465387487658
sS'r75 p_o'
p442
F0.18355136660112664
sS'pr10 TOT_CORR_classes_min'
p443
F0.20970406005427769
sS'rpr30 w_comb'
p444
F0.12509884908231855
sS'rpr95 INTERACT_spo'
p445
F0.21644466698645082
sS'rpr85 p_o'
p446
F0.11701576370453225
sS'rpr80 PMI_pred_obj'
p447
F0.20805309670647307
sS'r70 TOT_CORR_spo'
p448
F0.25564148820302318
sS'pr65 INTERACT_classes_max'
p449
F0.20000000000000001
sS'rpr65 w_join'
p450
F0.18835282840101913
sS'rpr30 w_join'
p451
F0.12497636843431692
sS'rpr90 IC_obj'
p452
F0.22891326901668085
sS'pr95 TOT_CORR_spo'
p453
F0.26133869253769981
sS'pr65 no_w'
p454
F0.25383465387487658
sS'rpr85 TOT_CORR_classes_min'
p455
F0.17036763016186193
sS'r65 INTERACT_spo'
p456
F0.25383465387487658
sS'rpr10 PMI_pred_obj'
p457
F0.073024237543427878
sS'r75 w_ic_pmi'
p458
F0.25307622186664597
sS'pr60 p_o'
p459
F0.19185018642276191
sS'rpr85 PMI_classes_min'
p460
F0.041115162315204519
sS'rpr30 PMI_pred_obj'
p461
F0.12545677965616289
sS'pr20 w_ic_pmi'
p462
F0.22276006720996794
sS'pr80 PMI_pred_obj'
p463
F0.26445205446885106
sS'r40 PMI_classes_min'
p464
F0.20000000000000001
sS'rpr30 IC_pred'
p465
F0.11877606728457422
sS'r85 w_comb'
p466
F0.26467366408307519
sS'r65 INTERACT_classes_max'
p467
F0.20000000000000001
sS'r60 PMI_classes_min'
p468
F0.20000000000000001
sS'r10 w_join'
p469
F0.21352840748452701
sS'pr85 w_comb'
p470
F0.26467366408307519
sS'rpr50 no_w'
p471
F0.16174172938120338
sS'r90 INTERACT_classes_max'
p472
F0.20000000000000001
sS'r55 w_join'
p473
F0.25255190694764962
sS'pr55 INTERACT_classes_max'
p474
F0.20000000000000001
sS'r80 no_w'
p475
F0.25854561720559321
sS'r80 IC_pred'
p476
F0.24895373471976961
sS'rpr85 w_comb'
p477
F0.2128280120007659
sS'pr60 w_ic_pmi'
p478
F0.24843603331489703
sS'pr85 w_join'
p479
F0.26431084095622992
sS'r50 INTERACT_spo'
p480
F0.24680870029570315
sS'r75 PMI_classes_min'
p481
F0.20000000000000001
sS'rpr95 w_ic_pmi'
p482
F0.21033466693300798
sS'rpr65 w_comb'
p483
F0.18857758109958733
sS'rpr50 TOT_CORR_classes_min'
p484
F0.14082049953360251
sS'rpr10 IC_obj'
p485
F0.074161684296703334
sS'rpr90 PMI_pred_obj'
p486
F0.21856837194854581
sS'rpr80 PMI_classes_min'
p487
F0.041115162315204519
sS'pr65 INTERACT_spo'
p488
F0.25383465387487658
sS'rpr90 p_o'
p489
F0.11717869498933232
sS'pr10 TOT_CORR_spo'
p490
F0.21292313200000004
sS'rpr55 PMI_classes_max'
p491
F0.041115162315204519
sS'r65 TOT_CORR_classes_min'
p492
F0.23104941934193091
sS'r30 INTERACT_classes_min'
p493
F0.19999999999999998
sS'r95 TOT_CORR_classes_min'
p494
F0.22928132180650557
sS'r60 w_join'
p495
F0.25515017260023909
sS'r55 TOT_CORR_classes_min'
p496
F0.23011465516461188
sS'rpr70 w_ic_pmi'
p497
F0.18614764522360724
sS'pr70 TOT_CORR_spo'
p498
F0.25564148820302318
sS'pr95 IC_obj'
p499
F0.27726700014795819
sS'pr10 TOT_CORR_classes_max'
p500
F0.20970406005427769
sS'rpr10 PMI_classes_min'
p501
F0.041115162315204519
sS'r55 w_comb'
p502
F0.25278880295304862
sS'r80 w_comb'
p503
F0.2632814522897215
sS'pr60 no_w'
p504
F0.25177091975920385
sS'r75 INTERACT_classes_min'
p505
F0.20000000000000001
sS'pr10 PMI_classes_max'
p506
F0.20000000000000001
sS'pr10 IC_pred'
p507
F0.21169207159561751
sS'r60 IC_pred'
p508
F0.24446472348287238
sS'r70 w_comb'
p509
F0.25983301619209936
sS'pr90 INTERACT_spo'
p510
F0.26059927740214173
sS'r95 TOT_CORR_spo'
p511
F0.26133869253769981
sS'rpr40 TOT_CORR_classes_max'
p512
F0.12742107986434059
sS'pr40 PMI_pred_obj'
p513
F0.24373648209344534
sS'pr40 TOT_CORR_classes_max'
p514
F0.22669477753246031
sS'r30 PMI_classes_max'
p515
F0.19999999999999998
sS'rpr30 INTERACT_classes_max'
p516
F0.041115162315204519
sS'r60 PMI_pred_obj'
p517
F0.25629469686473055
sS'r30 TOT_CORR_classes_min'
p518
F0.22275161717835842
sS'pr75 INTERACT_spo'
p519
F0.25720568023985174
sS'rpr10 p_o'
p520
F0.060787888013203117
sS'rpr30 no_w'
p521
F0.12298749931617553
sS'r20 PMI_classes_max'
p522
F0.20000000000000004
sS'pr20 TOT_CORR_classes_max'
p523
F0.21718360293539762
sS'pr20 IC_pred'
p524
F0.22139257651384289
sS'r50 p_o'
p525
F0.19655227985268919
sS'rpr10 no_w'
p526
F0.072063524180888794
sS'pr20 INTERACT_classes_min'
p527
F0.20000000000000004
sS'rpr60 INTERACT_classes_min'
p528
F0.041115162315204519
sS'r95 INTERACT_spo'
p529
F0.26133869253769981
sS'r65 IC_pred'
p530
F0.24594481152422049
sS'rpr75 IC_obj'
p531
F0.21100138201701893
sS'r80 INTERACT_spo'
p532
F0.25854561720559321
sS'r85 INTERACT_classes_max'
p533
F0.20000000000000001
sS'rpr40 IC_pred'
p534
F0.13813093669511342
sS'r95 w_join'
p535
F0.26645678079109486
sS'rpr40 IC_obj'
p536
F0.15164732230457845
sS'pr30 INTERACT_spo'
p537
F0.23301821772744197
sS'r85 TOT_CORR_spo'
p538
F0.25967112517571755
sS'pr30 w_ic_pmi'
p539
F0.23135866597748739
sS'rpr70 TOT_CORR_spo'
p540
F0.19078709225236731
sS'rpr70 INTERACT_classes_min'
p541
F0.041115162315204519
sS'pr95 w_ic_pmi'
p542
F0.25622152341131615
sS'r60 w_comb'
p543
F0.25540728853445716
sS'rpr50 p_o'
p544
F0.10639211689942162
sS'pr55 IC_pred'
p545
F0.24271937451482536
sS'pr70 IC_obj'
p546
F0.26766594374358443
sS'rpr40 w_join'
p547
F0.14631701430453192
sS'r30 IC_obj'
p548
F0.23836579918540046
sS'rpr55 INTERACT_classes_min'
p549
F0.041115162315204519
sS'r40 PMI_pred_obj'
p550
F0.24373648209344534
sS'rpr85 INTERACT_classes_max'
p551
F0.041115162315204519
sS'pr50 TOT_CORR_spo'
p552
F0.24680870029570315
sS'rpr20 TOT_CORR_classes_min'
p553
F0.091613418303076941
sS'r55 no_w'
p554
F0.24943554191799949
sS'pr75 INTERACT_classes_max'
p555
F0.20000000000000001
sS'rpr65 TOT_CORR_spo'
p556
F0.18431919535245689
sS'pr65 TOT_CORR_spo'
p557
F0.25383465387487658
sS'pr30 w_comb'
p558
F0.23491323923946383
sS'rpr80 TOT_CORR_classes_min'
p559
F0.16748131455651291
sS'r20 TOT_CORR_classes_max'
p560
F0.21718360293539762
sS'rpr10 TOT_CORR_classes_min'
p561
F0.068393855628383043
sS'rpr50 INTERACT_classes_max'
p562
F0.041115162315204519
sS'pr65 w_ic_pmi'
p563
F0.25023040160775945
sS'r10 TOT_CORR_classes_min'
p564
F0.20970406005427769
sS'pr85 INTERACT_spo'
p565
F0.25967112517571755
sS'rpr85 PMI_pred_obj'
p566
F0.21350887115841896
sS'rpr80 IC_pred'
p567
F0.19142530228038412
sS'rpr75 TOT_CORR_classes_min'
p568
F0.1642083809130731
sS'rpr80 INTERACT_classes_max'
p569
F0.041115162315204519
sS'pr70 INTERACT_spo'
p570
F0.25564148820302318
sS'r85 TOT_CORR_classes_max'
p571
F0.23048896403029198
sS'r40 TOT_CORR_classes_max'
p572
F0.22669477753246031
sS'r65 p_o'
p573
F0.18922308983256936
sS'pr95 TOT_CORR_classes_min'
p574
F0.22928132180650557
sS'rpr20 INTERACT_classes_min'
p575
F0.041115162315204519
sS'rpr80 w_join'
p576
F0.20715380461076127
sS'r50 TOT_CORR_spo'
p577
F0.24680870029570315
sS'rpr90 IC_pred'
p578
F0.19999655433934235
sS'r20 PMI_pred_obj'
p579
F0.22551748981098868
sS'pr65 IC_obj'
p580
F0.2650517748808941
sS'pr30 TOT_CORR_spo'
p581
F0.23301821772744197
sS'pr30 PMI_classes_min'
p582
F0.19999999999999998
sS'pr70 PMI_classes_max'
p583
F0.20000000000000001
sS'rpr95 PMI_pred_obj'
p584
F0.22325602436340847
sS'pr70 w_ic_pmi'
p585
F0.25177217895518988
sS'pr30 INTERACT_classes_min'
p586
F0.19999999999999998
sS'pr85 IC_obj'
p587
F0.27406838497741348
sS'pr55 p_o'
p588
F0.19430328527036103
sS'rpr40 PMI_classes_max'
p589
F0.041115162315204519
sS'r50 PMI_classes_min'
p590
F0.20000000000000001
sS'r80 PMI_classes_min'
p591
F0.20000000000000001
sS'r95 IC_pred'
p592
F0.25013174553697626
sS'rpr65 w_ic_pmi'
p593
F0.17999554153790642
sS'rpr60 TOT_CORR_spo'
p594
F0.17734334033255486
sS'rpr90 INTERACT_spo'
p595
F0.21212010340532059
sS'rpr60 PMI_classes_max'
p596
F0.041115162315204519
sS'rpr65 TOT_CORR_classes_min'
p597
F0.15637284940546398
sS'pr70 INTERACT_classes_min'
p598
F0.20000000000000001
sS'pr50 TOT_CORR_classes_max'
p599
F0.22926908438864871
sS'r65 INTERACT_classes_min'
p600
F0.20000000000000001
sS'r50 INTERACT_classes_max'
p601
F0.20000000000000001
sS'r70 INTERACT_classes_max'
p602
F0.20000000000000001
sS'pr75 w_join'
p603
F0.26135180063708408
sS'rpr30 TOT_CORR_classes_max'
p604
F0.11115338554229012
sS'rpr85 PMI_classes_max'
p605
F0.041115162315204519
sS'r90 w_ic_pmi'
p606
F0.25572027408622794
sS'rpr90 w_join'
p607
F0.21748587130521402
sS'pr80 INTERACT_spo'
p608
F0.25854561720559321
sS'r80 w_join'
p609
F0.26294038153509569
sS'rpr40 TOT_CORR_spo'
p610
F0.14372002719502908
sS'rpr10 TOT_CORR_classes_max'
p611
F0.068393855628383043
sS'rpr55 no_w'
p612
F0.16982835717631056
sS'rpr30 IC_obj'
p613
F0.12902859763569083
sS'r40 PMI_classes_max'
p614
F0.20000000000000001
sS'r95 w_comb'
p615
F0.26686401990509517
sS'rpr55 TOT_CORR_classes_max'
p616
F0.14656624988261296
sS'pr75 TOT_CORR_classes_min'
p617
F0.23112242742496136
sS'pr85 TOT_CORR_classes_min'
p618
F0.23048896403029198
sS'rpr95 PMI_classes_max'
p619
F0.041115162315204519
sS'r95 IC_obj'
p620
F0.27726700014795819
sS'pr30 IC_pred'
p621
F0.22932684173200379
sS'r50 TOT_CORR_classes_min'
p622
F0.22926908438864871
sS'r30 TOT_CORR_spo'
p623
F0.23301821772744197
sS'rpr10 TOT_CORR_spo'
p624
F0.072063524180888794
sS'rpr95 TOT_CORR_classes_max'
p625
F0.17510997994635277
sS'r60 TOT_CORR_classes_min'
p626
F0.23070031743693553
sS'r55 TOT_CORR_spo'
p627
F0.24943554191799949
sS'rpr55 IC_pred'
p628
F0.1622046677276878
sS'pr80 PMI_classes_max'
p629
F0.20000000000000001
sS'rpr85 TOT_CORR_classes_max'
p630
F0.17036763016186193
sS'pr10 INTERACT_classes_min'
p631
F0.20000000000000001
sS'pr90 PMI_classes_min'
p632
F0.20000000000000001
sS'rpr40 no_w'
p633
F0.14372002719502908
sS'in_degree'
p634
L2L
sS'rpr80 IC_obj'
p635
F0.21740088102739116
sS'r75 PMI_classes_max'
p636
F0.20000000000000001
sS'r70 IC_pred'
p637
F0.24717565905548872
sS'rpr95 p_o'
p638
F0.11710125797865488
sS'rpr40 w_comb'
p639
F0.14646659435571105
sS'pr85 INTERACT_classes_min'
p640
F0.20000000000000001
sS'pr30 IC_obj'
p641
F0.23836579918540046
sS'rpr75 w_comb'
p642
F0.20161441481833242
sS'out_degree'
p643
L2L
sS'rpr40 p_o'
p644
F0.099161232397976584
sS'pr20 TOT_CORR_spo'
p645
F0.22385506910720004
sS'pr95 w_comb'
p646
F0.26686401990509517
sS'rpr95 INTERACT_classes_max'
p647
F0.041115162315204519
sS'r30 INTERACT_classes_max'
p648
F0.19999999999999998
sS'pr50 INTERACT_classes_max'
p649
F0.20000000000000001
sS'r40 INTERACT_classes_min'
p650
F0.20000000000000001
sS'rpr50 TOT_CORR_spo'
p651
F0.16174172938120338
sS'rpr40 w_ic_pmi'
p652
F0.14105438026513953
sS'pr85 TOT_CORR_spo'
p653
F0.25967112517571755
sS'pr10 PMI_classes_min'
p654
F0.20000000000000001
sS'r60 INTERACT_classes_max'
p655
F0.20000000000000001
sS'rpr80 TOT_CORR_classes_max'
p656
F0.16748131455651291
sS'pr20 PMI_classes_max'
p657
F0.20000000000000004
sS'rpr60 w_ic_pmi'
p658
F0.17334225411511611
sS'rpr80 p_o'
p659
F0.11658023488124927
sS'r55 TOT_CORR_classes_max'
p660
F0.23011465516461188
sS'rpr80 INTERACT_spo'
p661
F0.20230830075917322
sS'r60 TOT_CORR_spo'
p662
F0.25177091975920385
sS'rpr10 IC_pred'
p663
F0.070645161182388436
sS'pr50 w_join'
p664
F0.24966019639008971
sS'rpr70 w_comb'
p665
F0.19533806220811811
sS'rpr50 INTERACT_spo'
p666
F0.16174172938120338
sS'rpr20 IC_pred'
p667
F0.096400257493996666
sS'pr65 PMI_pred_obj'
p668
F0.25870474221898032
sS'rpr95 IC_obj'
p669
F0.2340746054480293
sS'pr65 w_comb'
p670
F0.25775056859217327
sS'r75 INTERACT_classes_max'
p671
F0.20000000000000001
sS'rpr30 INTERACT_classes_min'
p672
F0.041115162315204519
sS'r60 IC_obj'
p673
F0.26217135992079671
sS'pr65 PMI_classes_max'
p674
F0.20000000000000001
sS'r95 PMI_classes_min'
p675
F0.20000000000000001
sS'pr60 INTERACT_classes_max'
p676
F0.20000000000000001
sS'pr65 INTERACT_classes_min'
p677
F0.20000000000000001
sS'r55 PMI_pred_obj'
p678
F0.25361178595036649
sS'starting'
p679
I01
sS'r30 TOT_CORR_classes_max'
p680
F0.22275161717835842
sa(dp681
g3
F0.21390340379382602
sg4
F0.233169773003088
sg5
F0.23729654987552651
sg6
F0.20000000000000001
sg7
F0.22709947947122128
sg8
F0.2284518074218066
sg9
F0.20000000000000001
sg10
F0.23059919324360267
sg11
F0.24891617275463085
sg12
F0.20414770200000001
sg13
F0.20000000000000004
sg14
F0.22622213095593408
sg15
F0.21660430300758382
sg16
F0.17875762614319762
sg17
F0.23475489173733888
sg18
F0.24101252341318435
sg19
F0.20000000000000001
sg20
F0.23562805996560909
sg21
F0.23134161003760867
sg22
F0.20000000000000001
sg23
F0.20000000000000001
sg24
F0.25172970233048353
sg25
F0.23211224210273718
sg26
F0.20000000000000001
sg27
F0.24004088192490664
sg28
F0.2295063322306467
sg29
F0.20000000000000001
sg30
F0.21098408853090739
sg31
F0.23675256459994229
sg32
F0.23459063248738765
sg33
F0.22661137317313912
sg34
F0.22709947947122128
sg35
F0.2232688979506422
sg36
F0.24009593191741715
sg37
F0.24113442268026519
sg38
F0.23219855329026812
sg39
F0.16122937471335963
sg40
F0.2075999476633214
sg41
F0.19882827057780975
sg42
F0.23219855329026812
sg43
F0.22887002590107347
sg44
F0.24700240704921272
sg45
F0.21934215815672703
sg46
F0.20847575537920005
sg47
F0.20000000000000001
sg48
F0.23294061736575875
sg49
F0.23059919324360267
sg50
F0.23219855329026812
sg51
F0.22576373004491335
sg52
F0.23219855329026814
sg53
F0.2355894993107589
sg54
F0.20414770200000001
sg55
F0.21181703601791227
sg56
F0.23464973731919503
sg57
F0.20707021409815057
sg58
F0.23520010952923542
sg59
F0.22454070844077589
sg60
F0.19999999999999998
sg61
F0.24190573541358104
sg62
F0.23675256459994229
sg63
F0.19999999999999998
sg64
F0.24262151168880275
sg65
F0.20000000000000001
sg66
F0.21934708192921651
sg67
F0.23096753731075348
sg68
F0.21284166065511195
sg69
F0.24360296413612056
sg70
F0.13894380564871245
sg71
F0.22535611123846994
sg72
F0.20414770200000001
sg73
F0.23652372869263633
sg74
F0.25452283513038054
sg75
F0.23421930918232375
sg76
F0.21779914041618362
sg77
F0.22068503256312072
sg78
F0.25042777327079879
sg79
F0.23603839013491063
sg80
F0.24360296413612056
sg81
F0.20000000000000001
sg82
F0.23235453733124883
sg83
F0.20000000000000001
sg84
F0.22891233083054824
sg85
F0.20337423691332338
sg86
F0.21876825030300812
sg87
F0.23088869407691548
sg88
F0.22797966312093998
sg89
F0.20000000000000004
sg90
F0.23116057915043683
sg91
F0.22257009510061262
sg92
F0.21181703601791227
sg93
F0.22355511918346074
sg94
F0.22520277400585029
sg95
F0.20000000000000001
sg96
F0.23143257415903856
sg97
F0.20000000000000001
sg98
F0.22829260573077897
sg99
F0.20000000000000001
sg100
F0.23219855329026812
sg101
F0.1449845763861988
sg102
F0.25415846657566149
sg103
F0.2295063322306467
sg104
F0.22297816883241503
sg105
F0.23652372869263633
sg106
F0.20847575537920005
sg107
F0.15785897367857504
sg108
F0.20000000000000004
sg109
F0.23392447455059087
sg110
F0.2293292563083259
sg111
F0.14192981752594094
sg112
F0.22407219715682342
sg113
F0.14810687195561079
sg114
F0.20000000000000001
sg115
F0.22878047102020621
sg116
F0.23301742741949494
sg117
F0.20000000000000001
sg118
F0.24439751330222625
sg119
F0.22127640007890628
sg120
F0.20000000000000001
sg121
F0.16465290558242451
sg122
F0.20000000000000001
sg123
F0.21147573668071618
sg124
F0.23059919324360267
sg125
F0.23219855329026814
sg126
F0.17962319479454339
sg127
F0.23219855329026812
sg128
F0.2216988787441358
sg129
F0.23065343577636216
sg130
F0.20414770200000001
sg131
F0.24239607943068944
sg132
F0.23219855329026812
sg133
F0.23366954735370873
sg134
F0.23111248471590501
sg135
F0.22769041823197886
sg136
F0.20833553678478314
sg137
F0.20411172573878994
sg138
F0.22737763346238393
sg139
F0.16855144733743369
sg140
F0.23242590957665626
sg141
F0.20368973765926568
sg142
F0.15785897367857504
sg143
F0.23745142565477206
sg144
F0.20000000000000004
sg145
F0.21605255680047619
sg146
F0.20000000000000001
sg147
F0.23294061736575875
sg148
F0.21876825030300812
sg149
F0.20000000000000001
sg150
F0.2090620602751011
sg151
F0.1449845763861988
sg152
F0.24277187057172037
sg153
F0.15454625351417989
sg154
F0.25452283513038054
sg155
F0.20000000000000001
sg156
F0.20337423691332338
sg157
F0.23483358797357137
sg158
F0.20000000000000001
sg159
F0.20000000000000001
sg160
F0.22085652649446891
sg161
F0.23219855329026812
sg162
F0.20000000000000001
sg163
F0.21545393296780657
sg164
F0.23059919324360267
sg165
F0.22068503256312072
sg166
F0.22862499334361835
sg167
F0.20000000000000001
sg168
F0.21253431798681932
sg169
F0.24192348728587362
sg170
F0.23194451258527377
sg171
F0.22797966312093998
sg172
F0.13894380564871245
sg173
F0.23225193229888663
sg174
F0.2611879769782246
sg175
F0.20000000000000001
sg176
F0.20847575537920005
sg177
F0.23036356774668004
sg178
F0.21586023953360356
sg179
F0.23822930383664703
sg180
F0.24485302455791105
sg181
F0.20000000000000001
sg182
F0.23219855329026812
sg183
F0.22919558140925012
sg184
F0.21545393296780657
sg185
F0.21284166065511195
sg186
F0.23384009813852746
sg187
F0.21605255680047619
sg188
F0.25358022199840546
sg189
F0.24009593191741715
sg190
F0.23729654987552651
sg191
F0.17875762614319762
sg192
F0.24075925747618809
sg193
L27442L
sg194
F0.20000000000000001
sg195
F0.23383047542514637
sg196
F0.20847575537920005
sg197
F0.23173297381832206
sg198
F0.23219855329026812
sg199
F0.20000000000000001
sg200
F0.23211224210273718
sg201
F0.21158375777028299
sg202
F0.23219855329026812
sg203
F0.20000000000000001
sg204
F0.23173297381832206
sg205
F0.23324889940975385
sg206
F0.2232688979506422
sg207
F0.24023724275833008
sg208
F0.2293292563083259
sg209
F0.23532966296886756
sg210
F0.2307674764391007
sg211
F0.24382708458377067
sg212
F0.23342311908183558
sg213
F0.23219855329026812
sg214
F0.24101252341318435
sg215
F0.20000000000000001
sg216
F0.16122937471335963
sg217
F0.22535611123846994
sg218
F0.23219855329026812
sg219
F0.23219855329026812
sg220
F0.23854053998546029
sg221
F0.21934708192921651
sg222
F0.26176947149803231
sg223
F0.20000000000000001
sg224
F0.25415846657566149
sg225
F0.20000000000000001
sg226
F0.23219855329026812
sg227
F0.1512943935972659
sg228
F0.22470747169271121
sg229
F0.20000000000000001
sg230
F0.25940764837281033
sg231
F0.23219855329026812
sg232
F0.23789974017940252
sg233
F0.13894380564871245
sg234
F0.23439247857941203
sg235
F0.20707021409815057
sg236
F0.20000000000000001
sg237
F0.23295518255188699
sg238
F0.20000000000000001
sg239
F0.21713625798541314
sg240
F0.25358022199840546
sg241
F0.22123240034671576
sg242
F0.19109486371141884
sg243
F0.23211224210273718
sg244
F0.22769041823197886
sg245
F0.23219855329026812
sg246
F0.23039514651715015
sg247
F0.2148694652076179
sg248
F0.2295804027566743
sg249
F0.23938666569368916
sg250
F0.23295518255188699
sg251
F0.2232688979506422
sg252
F0.18593368147076533
sg253
F0.1512943935972659
sg254
F0.14810687195561079
sg255
F0.21713625798541314
sg256
F0.20264768260104557
sg257
F0.24277187057172037
sg258
F0.22290348637164881
sg259
F0.20362034411450361
sg260
F0.23096753731075348
sg261
F0.20000000000000001
sg262
F0.20000000000000001
sg263
F0.23019888520164372
sg264
F0.23219855329026812
sg265
F0.26040254639031629
sg266
F0.20000000000000001
sg267
F0.22968781584991649
sg268
F0.22127640007890628
sg269
F0.22290348637164881
sg270
F0.20000000000000001
sg271
F0.24190573541358104
sg272
F0.23865367159766801
sg273
F0.20000000000000001
sg274
F0.20000000000000001
sg275
F0.23850785148718687
sg276
F0.23087387444156868
sg277
F0.17163804384319648
sg278
F0.20648741413030808
sg279
F0.20000000000000004
sg280
F0.23532966296886756
sg281
F0.22307748238904734
sg282
F0.2527750645657888
sg283
F0.1449845763861988
sg284
F0.20000000000000001
sg285
F0.22887002590107347
sg286
F0.20000000000000001
sg287
F0.20774761615959819
sg288
F0.23916612331242357
sg289
F0.22968781584991649
sg290
F0.22797565654196877
sg291
F0.20000000000000001
sg292
F0.16465290558242451
sg293
F0.22123029221023771
sg294
F0.23219855329026812
sg295
F0.21713625798541314
sg296
F0.23219855329026812
sg297
F0.2090620602751011
sg298
F0.22637407807950483
sg299
F0.24197621629673718
sg300
F0.20000000000000001
sg301
F0.1949621253480282
sg302
F0.20000000000000001
sg303
F0.23225193229888663
sg304
F0.21934215815672703
sg305
F0.17163804384319648
sg306
F0.24439751330222625
sg307
F0.20000000000000001
sg308
F0.2204681723466741
sg309
F0.22613640524771023
sg310
F0.16498117814751057
sg311
F0.22887002590107347
sg312
F0.21952757703999376
sg313
F0.20000000000000001
sg314
F0.22829260573077897
sg315
F0.23677118344064696
sg316
F0.1449845763861988
sg317
F0.20749394347101324
sg318
F0.23219855329026812
sg319
F0.15454625351417989
sg320
F0.23219855329026812
sg321
F0.21713625798541314
sg322
F0.24885626298399799
sg323
F0.21284166065511195
sg324
F0.21979320434280147
sg325
F0.20000000000000001
sg326
F0.20000000000000001
sg327
F0.23508673253161813
sg328
F0.22230498850033933
sg329
F0.23532966296886756
sg330
F0.20000000000000001
sg331
F0.20000000000000001
sg332
F0.20000000000000001
sg333
F0.23219855329026812
sg334
F0.21586023953360356
sg335
F0.22707057832570016
sg336
F0.2232688979506422
sg337
F0.13602591107611689
sg338
F0.20000000000000001
sg339
F0.23822930383664703
sg340
F0.23219855329026812
sg341
F0.20000000000000001
sg342
F0.13894380564871245
sg343
F0.20368973765926568
sg344
F0.25042777327079879
sg345
F0.15454625351417989
sg346
F0.23383047542514637
sg347
F0.20264768260104557
sg348
F0.21552823119212478
sg349
F0.23301742741949494
sg350
F0.16855144733743369
sg351
F0.2148694652076179
sg352
F0.23916612331242357
sg353
F0.22891233083054824
sg354
F0.2393713111046899
sg355
F0.23342311908183558
sg356
F0.23138220953644364
sg357
F0.18341433656062295
sg358
F0.19999999999999998
sg359
F0.23383047542514637
sg360
F0.23219855329026812
sg361
F0.20000000000000001
sg362
F0.24104731716442268
sg363
F0.18724163549200412
sg364
F0.20774761615959819
sg365
F0.2527750645657888
sg366
F0.20376121137013187
sg367
F0.21713625798541314
sg368
F0.18593368147076533
sg369
F0.20362034411450361
sg370
F0.20000000000000001
sg371
F0.22454070844077589
sg372
F0.23653084306488484
sg373
F0.23219855329026812
sg374
F0.23532966296886756
sg375
F0.20000000000000001
sg376
F0.23219855329026812
sg377
F0.23775885169149463
sg378
F0.233169773003088
sg379
F0.22520277400585029
sg380
F0.1512943935972659
sg381
F0.20000000000000001
sg382
F0.22919558140925012
sg383
F0.22441670177049494
sg384
F0.23713004805467758
sg385
F0.20000000000000001
sg386
F0.23947883087208427
sg387
F0.20749394347101324
sg388
F0.22991083802491857
sg389
F0.23219855329026812
sg390
F0.23150894842227365
sg391
F0.20414770200000001
sg392
F0.23930401864792267
sg393
F0.2316955887619892
sg394
F0.15785897367857504
sg395
F0.22520277400585029
sg396
F0.22127640007890628
sg397
F0.2211888817562232
sg398
F0.23219855329026812
sg399
F0.23219855329026812
sg400
F0.23219855329026814
sg401
F0.23532966296886756
sg402
F0.20572258075462477
sg403
F0.22487132809871496
sg404
F0.23059919324360267
sg405
F0.20847575537920005
sg406
F0.23675256459994229
sg407
F0.21098408853090739
sg408
F0.23163626066320375
sg409
F0.14192981752594094
sg410
F0.23219855329026812
sg411
F0.20000000000000001
sg412
F0.24277187057172037
sg413
L4L
sg414
F0.21660430300758382
sg415
F0.2211888817562232
sg416
F0.19109486371141884
sg417
F0.1930603621058497
sg418
F0.1512943935972659
sg419
F0.21713625798541314
sg420
F0.22080057087980423
sg421
F0.23219855329026812
sg422
F0.23103282932735628
sg423
F0.25819767136175992
sg424
F0.23225193229888663
sg425
F0.23219855329026812
sg426
F0.20000000000000001
sg427
F0.23219855329026812
sg428
F0.2204681723466741
sg429
F0.13602591107611689
sg430
F0.14810687195561079
sg431
F0.18341433656062295
sg432
F0.22080057087980423
sg433
F0.20000000000000001
sg434
F0.22520277400585029
sg435
F0.24101252341318435
sg436
F0.23219855329026812
sg437
F0.23591686109898802
sg438
F0.21552823119212478
sg439
F0.23219855329026812
sg440
F0.23065343577636216
sg441
F0.22707057832570016
sg442
F0.25172970233048353
sg443
F0.1930603621058497
sg444
F0.23177440013001638
sg445
F0.24439751330222625
sg446
F0.26235180678125181
sg447
F0.23409272361287969
sg448
F0.22887002590107347
sg449
F0.20000000000000001
sg450
F0.23763912530011067
sg451
F0.23230467522315418
sg452
F0.24114873239730905
sg453
F0.23675256459994229
sg454
F0.22707057832570016
sg455
F0.17218517947366097
sg456
F0.22707057832570016
sg457
F0.22968568493372282
sg458
F0.22797565654196877
sg459
F0.24700240704921272
sg460
F0.23219855329026812
sg461
F0.22818210751579937
sg462
F0.2075999476633214
sg463
F0.22613640524771023
sg464
F0.20000000000000001
sg465
F0.23286387805915548
sg466
F0.23146694684533534
sg467
F0.20000000000000001
sg468
F0.20000000000000001
sg469
F0.20376121137013187
sg470
F0.23146694684533534
sg471
F0.2363802149817158
sg472
F0.20000000000000001
sg473
F0.2216988787441358
sg474
F0.20000000000000001
sg475
F0.23225193229888663
sg476
F0.23036356774668004
sg477
F0.24031677024859183
sg478
F0.22297816883241503
sg479
F0.23194451258527377
sg480
F0.22127640007890628
sg481
F0.20000000000000001
sg482
F0.24074896571388518
sg483
F0.23689632535589092
sg484
F0.19882827057780975
sg485
F0.23096096550492004
sg486
F0.23581336774654296
sg487
F0.23219855329026812
sg488
F0.22707057832570016
sg489
F0.26237103713821419
sg490
F0.20414770200000001
sg491
F0.23219855329026812
sg492
F0.15454625351417989
sg493
F0.19999999999999998
sg494
F0.13602591107611689
sg495
F0.22355511918346074
sg496
F0.16122937471335963
sg497
F0.23696333066629957
sg498
F0.22887002590107347
sg499
F0.23448070183667785
sg500
F0.1930603621058497
sg501
F0.23219855329026812
sg502
F0.22123240034671576
sg503
F0.22991083802491857
sg504
F0.22520277400585029
sg505
F0.20000000000000001
sg506
F0.20000000000000001
sg507
F0.20411172573878994
sg508
F0.22407219715682342
sg509
F0.22661137317313912
sg510
F0.23532966296886756
sg511
F0.23675256459994229
sg512
F0.20648741413030808
sg513
F0.21253885944475392
sg514
F0.17163804384319648
sg515
F0.19999999999999998
sg516
F0.23219855329026812
sg517
F0.21952757703999376
sg518
F0.17875762614319762
sg519
F0.23059919324360267
sg520
F0.23816610535390073
sg521
F0.233169773003088
sg522
F0.20000000000000004
sg523
F0.18593368147076533
sg524
F0.20833553678478314
sg525
F0.24239607943068944
sg526
F0.2316955887619892
sg527
F0.20000000000000004
sg528
F0.23219855329026812
sg529
F0.23675256459994229
sg530
F0.22576373004491335
sg531
F0.23838221703204371
sg532
F0.23225193229888663
sg533
F0.20000000000000001
sg534
F0.23412524445687716
sg535
F0.23483358797357137
sg536
F0.23244828205080686
sg537
F0.21284166065511195
sg538
F0.23383047542514637
sg539
F0.21158375777028299
sg540
F0.24009593191741715
sg541
F0.23219855329026812
sg542
F0.23366954735370873
sg543
F0.22307748238904734
sg544
F0.25676939929158166
sg545
F0.22230498850033933
sg546
F0.22622213095593408
sg547
F0.23355392953808185
sg548
F0.21094018154058208
sg549
F0.23219855329026812
sg550
F0.21253885944475392
sg551
F0.23219855329026812
sg552
F0.22127640007890628
sg553
F0.22085652649446891
sg554
F0.2232688979506422
sg555
F0.20000000000000001
sg556
F0.23916612331242357
sg557
F0.22707057832570016
sg558
F0.21147573668071618
sg559
F0.17587821941480836
sg560
F0.18593368147076533
sg561
F0.2270688571878976
sg562
F0.23219855329026812
sg563
F0.22470747169271121
sg564
F0.1930603621058497
sg565
F0.23383047542514637
sg566
F0.23495054469892085
sg567
F0.24008966231376616
sg568
F0.17962319479454339
sg569
F0.23219855329026812
sg570
F0.22887002590107347
sg571
F0.14192981752594094
sg572
F0.17163804384319648
sg573
F0.24885626298399799
sg574
F0.13602591107611689
sg575
F0.23219855329026814
sg576
F0.24021954599353232
sg577
F0.22127640007890628
sg578
F0.24138851758081545
sg579
F0.20572258075462477
sg580
F0.22441670177049494
sg581
F0.21284166065511195
sg582
F0.19999999999999998
sg583
F0.20000000000000001
sg584
F0.23667288598637432
sg585
F0.22637407807950483
sg586
F0.19999999999999998
sg587
F0.23134161003760867
sg588
F0.24485302455791105
sg589
F0.23219855329026812
sg590
F0.20000000000000001
sg591
F0.20000000000000001
sg592
F0.23421930918232375
sg593
F0.23616470336978237
sg594
F0.23822930383664703
sg595
F0.24360296413612056
sg596
F0.23219855329026812
sg597
F0.18724163549200412
sg598
F0.20000000000000001
sg599
F0.16465290558242451
sg600
F0.20000000000000001
sg601
F0.20000000000000001
sg602
F0.20000000000000001
sg603
F0.22878047102020621
sg604
F0.21390340379382602
sg605
F0.23219855329026812
sg606
F0.23235453733124883
sg607
F0.24185062289832424
sg608
F0.23225193229888663
sg609
F0.23039514651715015
sg610
F0.23464973731919503
sg611
F0.2270688571878976
sg612
F0.23729654987552651
sg613
F0.23133746618847714
sg614
F0.20000000000000001
sg615
F0.23437806564836514
sg616
F0.1949621253480282
sg617
F0.14810687195561079
sg618
F0.14192981752594094
sg619
F0.23219855329026812
sg620
F0.23448070183667785
sg621
F0.21253431798681932
sg622
F0.16465290558242451
sg623
F0.21284166065511195
sg624
F0.2316955887619892
sg625
F0.16498117814751057
sg626
F0.15785897367857504
sg627
F0.2232688979506422
sg628
F0.23635672925754808
sg629
F0.20000000000000001
sg630
F0.17218517947366097
sg631
F0.20000000000000001
sg632
F0.20000000000000001
sg633
F0.23464973731919503
sg634
L2L
sg635
F0.2393125981358234
sg636
F0.20000000000000001
sg637
F0.22737763346238393
sg638
F0.26222194658193182
sg639
F0.23292586510474197
sg640
F0.20000000000000001
sg641
F0.21094018154058208
sg642
F0.23862493000162432
sg643
L2L
sg644
F0.25326150602559405
sg645
F0.20847575537920005
sg646
F0.23437806564836514
sg647
F0.23219855329026812
sg648
F0.19999999999999998
sg649
F0.20000000000000001
sg650
F0.20000000000000001
sg651
F0.2363802149817158
sg652
F0.23248130655083057
sg653
F0.23383047542514637
sg654
F0.20000000000000001
sg655
F0.20000000000000001
sg656
F0.17587821941480836
sg657
F0.20000000000000004
sg658
F0.23536921118255161
sg659
F0.26215407541156316
sg660
F0.16122937471335963
sg661
F0.24190573541358104
sg662
F0.22520277400585029
sg663
F0.23165889669292156
sg664
F0.21979320434280147
sg665
F0.23776063979667139
sg666
F0.2363802149817158
sg667
F0.23197112196225012
sg668
F0.22123029221023771
sg669
F0.24204111159221428
sg670
F0.22487132809871496
sg671
F0.20000000000000001
sg672
F0.23219855329026812
sg673
F0.22257009510061262
sg674
F0.20000000000000001
sg675
F0.20000000000000001
sg676
F0.20000000000000001
sg677
F0.20000000000000001
sg678
F0.21779914041618362
sg679
I01
sg680
F0.17875762614319762
sa(dp682
g3
F0.22569062115277261
sg4
F0.19923470512779184
sg5
F0.24930212105150049
sg6
F0.20000000000000001
sg7
F0.30731716786446617
sg8
F0.18120636911976634
sg9
F0.20000000000000001
sg10
F0.31707316857396234
sg11
F0.21439912506494629
sg12
F0.21435498200000003
sg13
F0.20000000000000004
sg14
F0.30165000747662718
sg15
F0.26525690119794121
sg16
F0.284366969448756
sg17
F0.24314516769206557
sg18
F0.28905407287319596
sg19
F0.20000000000000001
sg20
F0.25266123063793633
sg21
F0.32432083670268003
sg22
F0.20000000000000001
sg23
F0.20000000000000001
sg24
F0.35747595125706261
sg25
F0.17950761494414877
sg26
F0.20000000000000001
sg27
F0.32433482108158712
sg28
F0.3305552636890971
sg29
F0.20000000000000001
sg30
F0.21729623880980276
sg31
F0.34920923409699689
sg32
F0.2541287026948536
sg33
F0.3074653418070582
sg34
F0.30731716786446617
sg35
F0.28466847113858695
sg36
F0.27919418432240406
sg37
F0.31607004208921663
sg38
F0.14149899762008042
sg39
F0.35135715718164173
sg40
F0.23114812922297129
sg41
F0.28451114410855738
sg42
F0.14149899762008042
sg43
F0.30897538715307582
sg44
F0.3235061351791253
sg45
F0.27565058200709874
sg46
F0.22932330686720004
sg47
F0.20000000000000001
sg48
F0.33183359720075134
sg49
F0.31707316857396234
sg50
F0.14149899762008042
sg51
F0.30816785710340461
sg52
F0.14149899762008042
sg53
F0.24526331226591236
sg54
F0.21435498200000003
sg55
F0.24411371272969062
sg56
F0.21920703058720425
sg57
F0.22728673778093875
sg58
F0.24811611919442286
sg59
F0.31745579311369637
sg60
F0.19999999999999998
sg61
F0.29884451179205312
sg62
F0.34920923409699689
sg63
F0.19999999999999998
sg64
F0.3252420166112347
sg65
F0.20000000000000001
sg66
F0.2805247229979414
sg67
F0.33880291279671276
sg68
F0.24476796808854195
sg69
F0.31818182873486817
sg70
F0.43463609855088892
sg71
F0.29934201036029401
sg72
F0.21435498200000003
sg73
F0.27859071299006355
sg74
F0.40168041774973756
sg75
F0.35916585668638618
sg76
F0.28572877185763623
sg77
F0.27893757542182129
sg78
F0.34619036145833482
sg79
F0.25799470025003712
sg80
F0.31818182873486817
sg81
F0.20000000000000001
sg82
F0.34700383413781949
sg83
F0.20000000000000001
sg84
F0.32531916632982777
sg85
F0.21334243441454276
sg86
F0.27139858202208172
sg87
F0.26147713202882084
sg88
F0.30922210721616888
sg89
F0.20000000000000004
sg90
F0.15999422638849706
sg91
F0.28649892966406432
sg92
F0.24411371272969062
sg93
F0.29136673534586938
sg94
F0.2927631531405106
sg95
F0.20000000000000001
sg96
F0.20239826147587303
sg97
F0.20000000000000001
sg98
F0.31541236915425069
sg99
F0.20000000000000001
sg100
F0.14149899762008042
sg101
F0.41221994342443352
sg102
F0.39081144286184055
sg103
F0.3305552636890971
sg104
F0.29724659984201518
sg105
F0.27859071299006355
sg106
F0.22932330686720004
sg107
F0.36406518363587898
sg108
F0.20000000000000004
sg109
F0.23361437459384887
sg110
F0.25698153305041582
sg111
F0.42356792321280679
sg112
F0.2995669687696717
sg113
F0.40059239827804854
sg114
F0.20000000000000001
sg115
F0.31528291268943781
sg116
F0.35078147522601116
sg117
F0.20000000000000001
sg118
F0.32771342035064904
sg119
F0.27659574154570316
sg120
F0.20000000000000001
sg121
F0.33839851778822855
sg122
F0.20000000000000001
sg123
F0.24429555429387259
sg124
F0.31707316857396234
sg125
F0.14149899762008042
sg126
F0.35435095992469751
sg127
F0.14149899762008042
sg128
F0.28340100906166926
sg129
F0.3486007773599738
sg130
F0.21435498200000003
sg131
F0.30087608777591213
sg132
F0.14149899762008042
sg133
F0.35515137573743133
sg134
F0.17910501075582469
sg135
F0.33312495501088818
sg136
F0.23173322048570116
sg137
F0.21557327902864509
sg138
F0.31675531915321919
sg139
F0.39303155524758393
sg140
F0.28104217049925795
sg141
F0.21531360002001776
sg142
F0.36406518363587898
sg143
F0.27159680612725706
sg144
F0.20000000000000004
sg145
F0.27775825912563057
sg146
F0.20000000000000001
sg147
F0.33183359720075134
sg148
F0.27139858202208172
sg149
F0.20000000000000001
sg150
F0.2459921916421412
sg151
F0.41221994342443352
sg152
F0.30855646217172333
sg153
F0.37651163770592921
sg154
F0.40168041774973756
sg155
F0.20000000000000001
sg156
F0.21334243441454276
sg157
F0.34689108699072685
sg158
F0.20000000000000001
sg159
F0.20000000000000001
sg160
F0.19639467802700089
sg161
F0.14149899762008042
sg162
F0.20000000000000001
sg163
F0.25986858062782647
sg164
F0.31707316857396234
sg165
F0.27893757542182129
sg166
F0.2215555951076712
sg167
F0.20000000000000001
sg168
F0.24833825876950752
sg169
F0.3254650898010093
sg170
F0.33115276482652584
sg171
F0.30922210721616888
sg172
F0.43463609855088892
sg173
F0.32515337236316466
sg174
F0.3181558372754108
sg175
F0.20000000000000001
sg176
F0.22932330686720004
sg177
F0.33385057235918497
sg178
F0.25967121101534041
sg179
F0.25930667685136882
sg180
F0.31216704793420746
sg181
F0.20000000000000001
sg182
F0.14149899762008042
sg183
F0.3408894012183723
sg184
F0.25986858062782647
sg185
F0.24476796808854195
sg186
F0.24382470381176041
sg187
F0.27775825912563057
sg188
F0.37980785015118129
sg189
F0.27919418432240406
sg190
F0.24930212105150049
sg191
F0.284366969448756
sg192
F0.31758603163864391
sg193
L6531L
sg194
F0.20000000000000001
sg195
F0.33320776231277227
sg196
F0.22932330686720004
sg197
F0.3423405149450291
sg198
F0.14149899762008042
sg199
F0.20000000000000001
sg200
F0.17950761494414877
sg201
F0.24737284144249225
sg202
F0.14149899762008042
sg203
F0.20000000000000001
sg204
F0.3423405149450291
sg205
F0.29069543054266239
sg206
F0.28466847113858695
sg207
F0.29959857383855704
sg208
F0.25698153305041582
sg209
F0.34122871901560575
sg210
F0.17703764768180852
sg211
F0.18913107237479471
sg212
F0.33904167399164375
sg213
F0.14149899762008042
sg214
F0.28905407287319596
sg215
F0.20000000000000001
sg216
F0.35135715718164173
sg217
F0.29934201036029401
sg218
F0.14149899762008042
sg219
F0.14149899762008042
sg220
F0.30471289778829408
sg221
F0.2805247229979414
sg222
F0.33087302542578645
sg223
F0.20000000000000001
sg224
F0.39081144286184055
sg225
F0.20000000000000001
sg226
F0.14149899762008042
sg227
F0.38868985780851711
sg228
F0.30560487748874754
sg229
F0.20000000000000001
sg230
F0.29237930452000915
sg231
F0.14149899762008042
sg232
F0.27667639200543137
sg233
F0.43463609855088892
sg234
F0.23821099547145008
sg235
F0.22728673778093875
sg236
F0.20000000000000001
sg237
F0.33910270908677259
sg238
F0.20000000000000001
sg239
F0.26056338651348993
sg240
F0.37980785015118129
sg241
F0.28358919271570693
sg242
F0.31314540498401466
sg243
F0.17950761494414877
sg244
F0.33312495501088818
sg245
F0.14149899762008042
sg246
F0.32323061761622729
sg247
F0.25643129585945906
sg248
F0.24162183932475984
sg249
F0.29730590740552343
sg250
F0.33910270908677259
sg251
F0.28466847113858695
sg252
F0.25637284419019019
sg253
F0.38868985780851711
sg254
F0.40059239827804854
sg255
F0.26056338651348993
sg256
F0.21496178442971386
sg257
F0.30855646217172333
sg258
F0.30956259585860485
sg259
F0.21423054626511914
sg260
F0.33880291279671276
sg261
F0.20000000000000001
sg262
F0.20000000000000001
sg263
F0.25158121664357469
sg264
F0.14149899762008042
sg265
F0.30531679492266472
sg266
F0.20000000000000001
sg267
F0.31678165139456083
sg268
F0.27659574154570316
sg269
F0.30956259585860485
sg270
F0.20000000000000001
sg271
F0.29884451179205312
sg272
F0.28703019919449874
sg273
F0.20000000000000001
sg274
F0.20000000000000001
sg275
F0.2772644589148901
sg276
F0.18178027971375482
sg277
F0.3117820548116953
sg278
F0.25523514035727529
sg279
F0.20000000000000004
sg280
F0.34122871901560575
sg281
F0.29154457824792024
sg282
F0.36869059612437644
sg283
F0.41221994342443352
sg284
F0.20000000000000001
sg285
F0.30897538715307582
sg286
F0.20000000000000001
sg287
F0.22889601492845366
sg288
F0.26927469489449019
sg289
F0.31678165139456083
sg290
F0.32226775572488375
sg291
F0.20000000000000001
sg292
F0.33839851778822855
sg293
F0.30163881858746877
sg294
F0.14149899762008042
sg295
F0.26056338651348993
sg296
F0.14149899762008042
sg297
F0.2459921916421412
sg298
F0.31394827269153586
sg299
F0.33744952256645278
sg300
F0.20000000000000001
sg301
F0.29892691487489309
sg302
F0.20000000000000001
sg303
F0.32515337236316466
sg304
F0.27565058200709874
sg305
F0.3117820548116953
sg306
F0.32771342035064904
sg307
F0.20000000000000001
sg308
F0.28236912394048524
sg309
F0.32531169705706636
sg310
F0.40532101843843105
sg311
F0.30897538715307582
sg312
F0.29369177346648256
sg313
F0.20000000000000001
sg314
F0.31541236915425069
sg315
F0.25760623310456388
sg316
F0.41221994342443352
sg317
F0.22904167210960252
sg318
F0.14149899762008042
sg319
F0.37651163770592921
sg320
F0.14149899762008042
sg321
F0.26056338651348993
sg322
F0.33485747308970476
sg323
F0.24476796808854195
sg324
F0.2754554757388864
sg325
F0.20000000000000001
sg326
F0.20000000000000001
sg327
F0.23781106377964806
sg328
F0.29096364941675956
sg329
F0.34122871901560575
sg330
F0.20000000000000001
sg331
F0.20000000000000001
sg332
F0.20000000000000001
sg333
F0.14149899762008042
sg334
F0.25967121101534041
sg335
F0.30086886648346567
sg336
F0.28466847113858695
sg337
F0.44542917116824998
sg338
F0.20000000000000001
sg339
F0.25930667685136882
sg340
F0.14149899762008042
sg341
F0.20000000000000001
sg342
F0.43463609855088892
sg343
F0.21531360002001776
sg344
F0.34619036145833482
sg345
F0.37651163770592921
sg346
F0.33320776231277227
sg347
F0.21496178442971386
sg348
F0.26386785270929769
sg349
F0.35078147522601116
sg350
F0.39303155524758393
sg351
F0.25643129585945906
sg352
F0.26927469489449019
sg353
F0.32531916632982777
sg354
F0.28701242509530978
sg355
F0.33904167399164375
sg356
F0.15983592398594648
sg357
F0.34087741742767874
sg358
F0.19999999999999998
sg359
F0.33320776231277227
sg360
F0.14149899762008042
sg361
F0.20000000000000001
sg362
F0.30629606093656719
sg363
F0.32713611992739688
sg364
F0.22889601492845366
sg365
F0.36869059612437644
sg366
F0.21414459726560892
sg367
F0.26056338651348993
sg368
F0.25637284419019019
sg369
F0.21423054626511914
sg370
F0.20000000000000001
sg371
F0.31745579311369637
sg372
F0.26214916189723991
sg373
F0.14149899762008042
sg374
F0.34122871901560575
sg375
F0.20000000000000001
sg376
F0.14149899762008042
sg377
F0.29475439881016974
sg378
F0.19923470512779184
sg379
F0.2927631531405106
sg380
F0.38868985780851711
sg381
F0.20000000000000001
sg382
F0.3408894012183723
sg383
F0.29407255918140746
sg384
F0.26625596868574419
sg385
F0.20000000000000001
sg386
F0.2970047494219214
sg387
F0.22904167210960252
sg388
F0.32333912609163229
sg389
F0.14149899762008042
sg390
F0.17883280765201698
sg391
F0.21435498200000003
sg392
F0.31457528962971631
sg393
F0.16019775976105777
sg394
F0.36406518363587898
sg395
F0.2927631531405106
sg396
F0.27659574154570316
sg397
F0.28888315404876452
sg398
F0.14149899762008042
sg399
F0.14149899762008042
sg400
F0.14149899762008042
sg401
F0.34122871901560575
sg402
F0.23033327007311977
sg403
F0.29950640539203549
sg404
F0.31707316857396234
sg405
F0.22932330686720004
sg406
F0.34920923409699689
sg407
F0.21729623880980276
sg408
F0.27130044353434279
sg409
F0.42356792321280679
sg410
F0.14149899762008042
sg411
F0.20000000000000001
sg412
F0.30855646217172333
sg413
L3L
sg414
F0.26525690119794121
sg415
F0.28888315404876452
sg416
F0.31314540498401466
sg417
F0.22811112766716796
sg418
F0.38868985780851711
sg419
F0.26056338651348993
sg420
F0.23642004211495066
sg421
F0.14149899762008042
sg422
F0.16142316362119569
sg423
F0.27937005343784593
sg424
F0.32515337236316466
sg425
F0.14149899762008042
sg426
F0.20000000000000001
sg427
F0.14149899762008042
sg428
F0.28236912394048524
sg429
F0.44542917116824998
sg430
F0.40059239827804854
sg431
F0.34087741742767874
sg432
F0.23642004211495066
sg433
F0.20000000000000001
sg434
F0.2927631531405106
sg435
F0.28905407287319596
sg436
F0.14149899762008042
sg437
F0.24771925198626879
sg438
F0.26386785270929769
sg439
F0.14149899762008042
sg440
F0.3486007773599738
sg441
F0.30086886648346567
sg442
F0.35747595125706261
sg443
F0.22811112766716796
sg444
F0.19862562264869738
sg445
F0.32771342035064904
sg446
F0.35585019617048552
sg447
F0.30025317306855376
sg448
F0.30897538715307582
sg449
F0.20000000000000001
sg450
F0.26745883015921507
sg451
F0.19827873252533351
sg452
F0.30878972982613512
sg453
F0.34920923409699689
sg454
F0.30086886648346567
sg455
F0.38043685228728591
sg456
F0.30086886648346567
sg457
F0.16118895414228279
sg458
F0.32226775572488375
sg459
F0.3235061351791253
sg460
F0.14149899762008042
sg461
F0.20137703836836746
sg462
F0.23114812922297129
sg463
F0.32531169705706636
sg464
F0.20000000000000001
sg465
F0.20307744324043114
sg466
F0.33123839827746071
sg467
F0.20000000000000001
sg468
F0.20000000000000001
sg469
F0.21414459726560892
sg470
F0.33123839827746071
sg471
F0.23927431857733122
sg472
F0.20000000000000001
sg473
F0.28340100906166926
sg474
F0.20000000000000001
sg475
F0.32515337236316466
sg476
F0.33385057235918497
sg477
F0.30658087098344822
sg478
F0.29724659984201518
sg479
F0.33115276482652584
sg480
F0.27659574154570316
sg481
F0.20000000000000001
sg482
F0.33398524350042996
sg483
F0.26783412868829359
sg484
F0.28451114410855738
sg485
F0.15890961313822805
sg486
F0.31906056036481906
sg487
F0.14149899762008042
sg488
F0.30086886648346567
sg489
F0.36807724541025444
sg490
F0.21435498200000003
sg491
F0.14149899762008042
sg492
F0.37651163770592921
sg493
F0.19999999999999998
sg494
F0.44542917116824998
sg495
F0.29136673534586938
sg496
F0.35135715718164173
sg497
F0.28470774045003638
sg498
F0.30897538715307582
sg499
F0.33931317669323696
sg500
F0.22811112766716796
sg501
F0.14149899762008042
sg502
F0.28358919271570693
sg503
F0.32333912609163229
sg504
F0.2927631531405106
sg505
F0.20000000000000001
sg506
F0.20000000000000001
sg507
F0.21557327902864509
sg508
F0.2995669687696717
sg509
F0.3074653418070582
sg510
F0.34122871901560575
sg511
F0.34920923409699689
sg512
F0.25523514035727529
sg513
F0.26183161947308764
sg514
F0.3117820548116953
sg515
F0.19999999999999998
sg516
F0.14149899762008042
sg517
F0.29369177346648256
sg518
F0.284366969448756
sg519
F0.31707316857396234
sg520
F0.16473721220922569
sg521
F0.19923470512779184
sg522
F0.20000000000000004
sg523
F0.25637284419019019
sg524
F0.23173322048570116
sg525
F0.30087608777591213
sg526
F0.16019775976105777
sg527
F0.20000000000000004
sg528
F0.14149899762008042
sg529
F0.34920923409699689
sg530
F0.30816785710340461
sg531
F0.28099408363260409
sg532
F0.32515337236316466
sg533
F0.20000000000000001
sg534
F0.22416100830932056
sg535
F0.34689108699072685
sg536
F0.21456726092049816
sg537
F0.24476796808854195
sg538
F0.33320776231277227
sg539
F0.24737284144249225
sg540
F0.27919418432240406
sg541
F0.14149899762008042
sg542
F0.35515137573743133
sg543
F0.29154457824792024
sg544
F0.26632064536891953
sg545
F0.29096364941675956
sg546
F0.30165000747662718
sg547
F0.21799059969479917
sg548
F0.2416910752159469
sg549
F0.14149899762008042
sg550
F0.26183161947308764
sg551
F0.14149899762008042
sg552
F0.27659574154570316
sg553
F0.19639467802700089
sg554
F0.28466847113858695
sg555
F0.20000000000000001
sg556
F0.26927469489449019
sg557
F0.30086886648346567
sg558
F0.24429555429387259
sg559
F0.36753975920058507
sg560
F0.25637284419019019
sg561
F0.16803543938348314
sg562
F0.14149899762008042
sg563
F0.30560487748874754
sg564
F0.22811112766716796
sg565
F0.33320776231277227
sg566
F0.3097099784306277
sg567
F0.30749427338508811
sg568
F0.35435095992469751
sg569
F0.14149899762008042
sg570
F0.30897538715307582
sg571
F0.42356792321280679
sg572
F0.3117820548116953
sg573
F0.33485747308970476
sg574
F0.44542917116824998
sg575
F0.14149899762008042
sg576
F0.29669257603348997
sg577
F0.27659574154570316
sg578
F0.32757356474480487
sg579
F0.23033327007311977
sg580
F0.29407255918140746
sg581
F0.24476796808854195
sg582
F0.19999999999999998
sg583
F0.20000000000000001
sg584
F0.32830024282221654
sg585
F0.31394827269153586
sg586
F0.19999999999999998
sg587
F0.32432083670268003
sg588
F0.31216704793420746
sg589
F0.14149899762008042
sg590
F0.20000000000000001
sg591
F0.20000000000000001
sg592
F0.35916585668638618
sg593
F0.27458126721434517
sg594
F0.25930667685136882
sg595
F0.31818182873486817
sg596
F0.14149899762008042
sg597
F0.32713611992739688
sg598
F0.20000000000000001
sg599
F0.33839851778822855
sg600
F0.20000000000000001
sg601
F0.20000000000000001
sg602
F0.20000000000000001
sg603
F0.31528291268943781
sg604
F0.22569062115277261
sg605
F0.14149899762008042
sg606
F0.34700383413781949
sg607
F0.31581504616659462
sg608
F0.32515337236316466
sg609
F0.32323061761622729
sg610
F0.21920703058720425
sg611
F0.16803543938348314
sg612
F0.24930212105150049
sg613
F0.19565449237420363
sg614
F0.20000000000000001
sg615
F0.3469260803791675
sg616
F0.29892691487489309
sg617
F0.40059239827804854
sg618
F0.42356792321280679
sg619
F0.14149899762008042
sg620
F0.33931317669323696
sg621
F0.24833825876950752
sg622
F0.33839851778822855
sg623
F0.24476796808854195
sg624
F0.16019775976105777
sg625
F0.40532101843843105
sg626
F0.36406518363587898
sg627
F0.28466847113858695
sg628
F0.2557805295902088
sg629
F0.20000000000000001
sg630
F0.38043685228728591
sg631
F0.20000000000000001
sg632
F0.20000000000000001
sg633
F0.21920703058720425
sg634
L3L
sg635
F0.29033068443177151
sg636
F0.20000000000000001
sg637
F0.31675531915321919
sg638
F0.38010599980938437
sg639
F0.21837832819394154
sg640
F0.20000000000000001
sg641
F0.2416910752159469
sg642
F0.28734909752220639
sg643
L0L
sg644
F0.2402325024667451
sg645
F0.22932330686720004
sg646
F0.3469260803791675
sg647
F0.14149899762008042
sg648
F0.19999999999999998
sg649
F0.20000000000000001
sg650
F0.20000000000000001
sg651
F0.23927431857733122
sg652
F0.22312420223014179
sg653
F0.33320776231277227
sg654
F0.20000000000000001
sg655
F0.20000000000000001
sg656
F0.36753975920058507
sg657
F0.20000000000000004
sg658
F0.26438475687957674
sg659
F0.34344454060248031
sg660
F0.35135715718164173
sg661
F0.29884451179205312
sg662
F0.2927631531405106
sg663
F0.16157236979220457
sg664
F0.2754554757388864
sg665
F0.27762231271518173
sg666
F0.23927431857733122
sg667
F0.18215933578039428
sg668
F0.30163881858746877
sg669
F0.31789716164696591
sg670
F0.29950640539203549
sg671
F0.20000000000000001
sg672
F0.14149899762008042
sg673
F0.28649892966406432
sg674
F0.20000000000000001
sg675
F0.20000000000000001
sg676
F0.20000000000000001
sg677
F0.20000000000000001
sg678
F0.28572877185763623
sg679
I01
sg680
F0.284366969448756
sa(dp683
g3
F0.19122255953260017
sg4
F0.18924561826971803
sg5
F0.14624045493827248
sg6
F0.20000000000000001
sg7
F0.10302439164267153
sg8
F0.20829317027013119
sg9
F0.20000000000000001
sg10
F0.097560978971291679
sg11
F0.19037888318667007
sg12
F0.18428709200000001
sg13
F0.20000000000000004
sg14
F0.10223095891192722
sg15
F0.14122055331700772
sg16
F0.15706189361484391
sg17
F0.14539699099749828
sg18
F0.1162694247330774
sg19
F0.20000000000000001
sg20
F0.13739312921421357
sg21
F0.085134584141149175
sg22
F0.20000000000000001
sg23
F0.20000000000000001
sg24
F0.10362148990566358
sg25
F0.20820853801587594
sg26
F0.20000000000000001
sg27
F0.097615799842936002
sg28
F0.092888827531527399
sg29
F0.20000000000000001
sg30
F0.18434591787745605
sg31
F0.076349754382680601
sg32
F0.14690166998412049
sg33
F0.10304513441385169
sg34
F0.10302439164267153
sg35
F0.12131354449638571
sg36
F0.12340447123363535
sg37
F0.095763002249666801
sg38
F0.24908261720810815
sg39
F0.12864940647019343
sg40
F0.16924592795186977
sg41
F0.15997482230657664
sg42
F0.24908261720810815
sg43
F0.10325654937141381
sg44
F0.11882063567445011
sg45
F0.12756507320230703
sg46
F0.16917293432320002
sg47
F0.20000000000000001
sg48
F0.079729999992700543
sg49
F0.097560978971291679
sg50
F0.24908261720810815
sg51
F0.11006180066373072
sg52
F0.24908261720810815
sg53
F0.15508668977336451
sg54
F0.18428709200000001
sg55
F0.15464682408236338
sg56
F0.17128982014273653
sg57
F0.16909146709767814
sg58
F0.1460779811355831
sg59
F0.097618314258607938
sg60
F0.19999999999999998
sg61
F0.10936609661317744
sg62
F0.076349754382680601
sg63
F0.19999999999999998
sg64
F0.089415626662537426
sg65
F0.20000000000000001
sg66
F0.12805247258277566
sg67
F0.087596507502278764
sg68
F0.15468607676445198
sg69
F0.096236472401598772
sg70
F0.098234816293382377
sg71
F0.10891447566813559
sg72
F0.18428709200000001
sg73
F0.14228723569719201
sg74
F0.086319601034980001
sg75
F0.07824154429715692
sg76
F0.12143015088790687
sg77
F0.12068310875817415
sg78
F0.10846668514193981
sg79
F0.13819031732191842
sg80
F0.096236472401598772
sg81
F0.20000000000000001
sg82
F0.08246067722235205
sg83
F0.20000000000000001
sg84
F0.098797914868461595
sg85
F0.1842668491672039
sg86
F0.12713989293628608
sg87
F0.13871075715380854
sg88
F0.096383355308438376
sg89
F0.20000000000000004
sg90
F0.22815953185282084
sg91
F0.1143798076572633
sg92
F0.15464682408236338
sg93
F0.11496398643521545
sg94
F0.11513157654721767
sg95
F0.20000000000000001
sg96
F0.1894820106385823
sg97
F0.20000000000000001
sg98
F0.097311822420265842
sg99
F0.20000000000000001
sg100
F0.24908261720810815
sg101
F0.1059548720542369
sg102
F0.090345687754960519
sg103
F0.092888827531527399
sg104
F0.11566959900533647
sg105
F0.14228723569719201
sg106
F0.16917293432320002
sg107
F0.12368776262430534
sg108
F0.20000000000000004
sg109
F0.15363592399162437
sg110
F0.15541898572721391
sg111
F0.10200664761548031
sg112
F0.11594805529531635
sg113
F0.11008915117068974
sg114
F0.20000000000000001
sg115
F0.097292407826636035
sg116
F0.083140639164359209
sg117
F0.20000000000000001
sg118
F0.090000458959138344
sg119
F0.12765957903984376
sg120
F0.20000000000000001
sg121
F0.13383974612034916
sg122
F0.20000000000000001
sg123
F0.15465773489297366
sg124
F0.097560978971291679
sg125
F0.24908261720810815
sg126
F0.12846739094110632
sg127
F0.24908261720810815
sg128
F0.12117410262327269
sg129
F0.076234089702422361
sg130
F0.18428709200000001
sg131
F0.13008777647035466
sg132
F0.24908261720810815
sg133
F0.07747877674877203
sg134
F0.20818848467335765
sg135
F0.086631192862533027
sg136
F0.16926933310783648
sg137
F0.1843114618184738
sg138
F0.10434569416445413
sg139
F0.11301580878358894
sg140
F0.1237267339168043
sg141
F0.18430626541674003
sg142
F0.12368776262430534
sg143
F0.12207988146527048
sg144
F0.20000000000000004
sg145
F0.12777584621850355
sg146
F0.20000000000000001
sg147
F0.079729999992700543
sg148
F0.12713989293628608
sg149
F0.20000000000000001
sg150
F0.15475953530129793
sg151
F0.1059548720542369
sg152
F0.10269003434639759
sg153
F0.11894634471898001
sg154
F0.086319601034980001
sg155
F0.20000000000000001
sg156
F0.1842668491672039
sg157
F0.075909272122303598
sg158
F0.20000000000000001
sg159
F0.20000000000000001
sg160
F0.20904979980794605
sg161
F0.24908261720810815
sg162
F0.20000000000000001
sg163
F0.14078947904942463
sg164
F0.097560978971291679
sg165
F0.12068310875817415
sg166
F0.17152380647599191
sg167
F0.20000000000000001
sg168
F0.15490029075583461
sg169
F0.089468409843319052
sg170
F0.08629594081598535
sg171
F0.096383355308438376
sg172
F0.098234816293382377
sg173
F0.092024539066177774
sg174
F0.13019783740419005
sg175
F0.20000000000000001
sg176
F0.16917293432320002
sg177
F0.093416062587182699
sg178
F0.14077368982864513
sg179
F0.13838631060330403
sg180
F0.12433832111876025
sg181
F0.20000000000000001
sg182
F0.24908261720810815
sg183
F0.08136014426852424
sg184
F0.14078947904942463
sg185
F0.15468607676445198
sg186
F0.1549075419841234
sg187
F0.12777584621850355
sg188
F0.094567544405141507
sg189
F0.12340447123363535
sg190
F0.14624045493827248
sg191
F0.15706189361484391
sg192
F0.10460180307711947
sg193
L30589L
sg194
F0.20000000000000001
sg195
F0.086645318543181998
sg196
F0.16917293432320002
sg197
F0.088197912103320494
sg198
F0.24908261720810815
sg199
F0.20000000000000001
sg200
F0.20820853801587594
sg201
F0.15484236740486862
sg202
F0.24908261720810815
sg203
F0.20000000000000001
sg204
F0.088197912103320494
sg205
F0.11657600167220099
sg206
F0.12131354449638571
sg207
F0.10079341829546143
sg208
F0.15541898572721391
sg209
F0.081421170306692603
sg210
F0.20808550030817069
sg211
F0.20868794743965843
sg212
F0.081027532312680603
sg213
F0.24908261720810815
sg214
F0.1162694247330774
sg215
F0.20000000000000001
sg216
F0.12864940647019343
sg217
F0.10891447566813559
sg218
F0.24908261720810815
sg219
F0.24908261720810815
sg220
F0.11053545278373725
sg221
F0.12805247258277566
sg222
F0.12408141208825076
sg223
F0.20000000000000001
sg224
F0.090345687754960519
sg225
F0.20000000000000001
sg226
F0.24908261720810815
sg227
F0.11441649251107913
sg228
F0.10972862460539087
sg229
F0.20000000000000001
sg230
F0.14332885551668684
sg231
F0.24908261720810815
sg232
F0.13197386203736375
sg233
F0.098234816293382377
sg234
F0.15420840120587795
sg235
F0.16909146709767814
sg236
F0.20000000000000001
sg237
F0.081038521952551193
sg238
F0.20000000000000001
sg239
F0.14084506830897153
sg240
F0.094567544405141507
sg241
F0.1211948019922644
sg242
F0.14643237598543277
sg243
F0.20820853801587594
sg244
F0.086631192862533027
sg245
F0.24908261720810815
sg246
F0.091716927165763421
sg247
F0.14051448593113258
sg248
F0.15463319806817025
sg249
F0.11781100899568341
sg250
F0.081038521952551193
sg251
F0.12131354449638571
sg252
F0.17025493570182354
sg253
F0.11441649251107913
sg254
F0.11008915117068974
sg255
F0.14084506830897153
sg256
F0.18429923600213857
sg257
F0.10269003434639759
sg258
F0.10333874110851408
sg259
F0.18428461096532919
sg260
F0.087596507502278764
sg261
F0.20000000000000001
sg262
F0.20000000000000001
sg263
F0.14655267944956485
sg264
F0.24908261720810815
sg265
F0.13661098709596003
sg266
F0.20000000000000001
sg267
F0.090685024958136073
sg268
F0.12765957903984376
sg269
F0.10333874110851408
sg270
F0.20000000000000001
sg271
F0.10936609661317744
sg272
F0.12477069366270123
sg273
F0.20000000000000001
sg274
F0.20000000000000001
sg275
F0.12306803911461181
sg276
F0.20832175340429626
sg277
F0.14494256190632396
sg278
F0.17487936112952301
sg279
F0.20000000000000004
sg280
F0.081421170306692603
sg281
F0.11498532541428766
sg282
F0.098990594199405715
sg283
F0.1059548720542369
sg284
F0.20000000000000001
sg285
F0.10325654937141381
sg286
F0.20000000000000001
sg287
F0.16915584118018229
sg288
F0.1307754656726034
sg289
F0.090685024958136073
sg290
F0.098340182933250697
sg291
F0.20000000000000001
sg292
F0.13383974612034916
sg293
F0.10921307349165654
sg294
F0.24908261720810815
sg295
F0.14084506830897153
sg296
F0.24908261720810815
sg297
F0.15475953530129793
sg298
F0.10395273513688477
sg299
F0.092304341266430404
sg300
F0.20000000000000001
sg301
F0.15303876103918476
sg302
F0.20000000000000001
sg303
F0.092024539066177774
sg304
F0.12756507320230703
sg305
F0.14494256190632396
sg306
F0.090000458959138344
sg307
F0.20000000000000001
sg308
F0.12823690944394622
sg309
F0.092049921613186148
sg310
F0.1083642840708087
sg311
F0.10325654937141381
sg312
F0.11524297631439667
sg313
F0.20000000000000001
sg314
F0.097311822420265842
sg315
F0.13813226337280993
sg316
F0.1059548720542369
sg317
F0.16916166722863396
sg318
F0.24908261720810815
sg319
F0.11894634471898001
sg320
F0.24908261720810815
sg321
F0.14084506830897153
sg322
F0.113531587046864
sg323
F0.15468607676445198
sg324
F0.12754556176411122
sg325
F0.20000000000000001
sg326
F0.20000000000000001
sg327
F0.1541585911940119
sg328
F0.12200599378403792
sg329
F0.081421170306692603
sg330
F0.20000000000000001
sg331
F0.20000000000000001
sg332
F0.20000000000000001
sg333
F0.24908261720810815
sg334
F0.14077368982864513
sg335
F0.10911295065797881
sg336
F0.12131354449638571
sg337
F0.094631797974564086
sg338
F0.20000000000000001
sg339
F0.13838631060330403
sg340
F0.24908261720810815
sg341
F0.20000000000000001
sg342
F0.098234816293382377
sg343
F0.18430626541674003
sg344
F0.10846668514193981
sg345
F0.11894634471898001
sg346
F0.086645318543181998
sg347
F0.18429923600213857
sg348
F0.14110942843348007
sg349
F0.083140639164359209
sg350
F0.11301580878358894
sg351
F0.14051448593113258
sg352
F0.1307754656726034
sg353
F0.098797914868461595
sg354
F0.11588799436133959
sg355
F0.081027532312680603
sg356
F0.22815558906908073
sg357
F0.13415932444946416
sg358
F0.19999999999999998
sg359
F0.086645318543181998
sg360
F0.24908261720810815
sg361
F0.20000000000000001
sg362
F0.10221150328050282
sg363
F0.14014368206194322
sg364
F0.16915584118018229
sg365
F0.098990594199405715
sg366
F0.18428289193986619
sg367
F0.14084506830897153
sg368
F0.17025493570182354
sg369
F0.18428461096532919
sg370
F0.20000000000000001
sg371
F0.097618314258607938
sg372
F0.12962175155832495
sg373
F0.24908261720810815
sg374
F0.081421170306692603
sg375
F0.20000000000000001
sg376
F0.24908261720810815
sg377
F0.11733432783613766
sg378
F0.18924561826971803
sg379
F0.11513157654721767
sg380
F0.11441649251107913
sg381
F0.20000000000000001
sg382
F0.08136014426852424
sg383
F0.10822948208360179
sg384
F0.13942494541655848
sg385
F0.20000000000000001
sg386
F0.10899951828422874
sg387
F0.16916166722863396
sg388
F0.091734291796863821
sg389
F0.24908261720810815
sg390
F0.20817492392357584
sg391
F0.18428709200000001
sg392
F0.10396435634735607
sg393
F0.22816460319785789
sg394
F0.12368776262430534
sg395
F0.11513157654721767
sg396
F0.12765957903984376
sg397
F0.12177714767934525
sg398
F0.24908261720810815
sg399
F0.24908261720810815
sg400
F0.24908261720810815
sg401
F0.081421170306692603
sg402
F0.16921332968063349
sg403
F0.10893584895853811
sg404
F0.097560978971291679
sg405
F0.16917293432320002
sg406
F0.076349754382680601
sg407
F0.18434591787745605
sg408
F0.1311034044061028
sg409
F0.10200664761548031
sg410
F0.24908261720810815
sg411
F0.20000000000000001
sg412
F0.10269003434639759
sg413
L1L
sg414
F0.14122055331700772
sg415
F0.12177714767934525
sg416
F0.14643237598543277
sg417
F0.18456222508635239
sg418
F0.11441649251107913
sg419
F0.14084506830897153
sg420
F0.16945681786251932
sg421
F0.24908261720810815
sg422
F0.22819512642224818
sg423
F0.15035954423378545
sg424
F0.092024539066177774
sg425
F0.24908261720810815
sg426
F0.20000000000000001
sg427
F0.24908261720810815
sg428
F0.12823690944394622
sg429
F0.094631797974564086
sg430
F0.11008915117068974
sg431
F0.13415932444946416
sg432
F0.16945681786251932
sg433
F0.20000000000000001
sg434
F0.11513157654721767
sg435
F0.1162694247330774
sg436
F0.24908261720810815
sg437
F0.14602361318406204
sg438
F0.14110942843348007
sg439
F0.24908261720810815
sg440
F0.076234089702422361
sg441
F0.10911295065797881
sg442
F0.10362148990566358
sg443
F0.18456222508635239
sg444
F0.18920011909193335
sg445
F0.090000458959138344
sg446
F0.11270349367122356
sg447
F0.10964683336860419
sg448
F0.10325654937141381
sg449
F0.20000000000000001
sg450
F0.13048144206965628
sg451
F0.18917419541209751
sg452
F0.094130871976689678
sg453
F0.076349754382680601
sg454
F0.10911295065797881
sg455
F0.1179083373158861
sg456
F0.10911295065797881
sg457
F0.22818928899818564
sg458
F0.098340182933250697
sg459
F0.11882063567445011
sg460
F0.24908261720810815
sg461
F0.189405683252759
sg462
F0.16924592795186977
sg463
F0.092049921613186148
sg464
F0.20000000000000001
sg465
F0.18953275430856703
sg466
F0.086310495397064313
sg467
F0.20000000000000001
sg468
F0.20000000000000001
sg469
F0.18428289193986619
sg470
F0.086310495397064313
sg471
F0.15434082366026375
sg472
F0.20000000000000001
sg473
F0.12117410262327269
sg474
F0.20000000000000001
sg475
F0.092024539066177774
sg476
F0.093416062587182699
sg477
F0.10227181022784068
sg478
F0.11566959900533647
sg479
F0.08629594081598535
sg480
F0.12765957903984376
sg481
F0.20000000000000001
sg482
F0.091484569228756057
sg483
F0.13054220248727078
sg484
F0.15997482230657664
sg485
F0.22813251364687445
sg486
F0.0964333746222997
sg487
F0.24908261720810815
sg488
F0.10911295065797881
sg489
F0.10742156292235799
sg490
F0.18428709200000001
sg491
F0.24908261720810815
sg492
F0.11894634471898001
sg493
F0.19999999999999998
sg494
F0.094631797974564086
sg495
F0.11496398643521545
sg496
F0.12864940647019343
sg497
F0.124365789343135
sg498
F0.10325654937141381
sg499
F0.074469560661063944
sg500
F0.18456222508635239
sg501
F0.24908261720810815
sg502
F0.1211948019922644
sg503
F0.091734291796863821
sg504
F0.11513157654721767
sg505
F0.20000000000000001
sg506
F0.20000000000000001
sg507
F0.1843114618184738
sg508
F0.11594805529531635
sg509
F0.10304513441385169
sg510
F0.081421170306692603
sg511
F0.076349754382680601
sg512
F0.17487936112952301
sg513
F0.14094651949435655
sg514
F0.14494256190632396
sg515
F0.19999999999999998
sg516
F0.24908261720810815
sg517
F0.11524297631439667
sg518
F0.15706189361484391
sg519
F0.097560978971291679
sg520
F0.22827768334321624
sg521
F0.18924561826971803
sg522
F0.20000000000000004
sg523
F0.17025493570182354
sg524
F0.16926933310783648
sg525
F0.13008777647035466
sg526
F0.22816460319785789
sg527
F0.20000000000000004
sg528
F0.24908261720810815
sg529
F0.076349754382680601
sg530
F0.11006180066373072
sg531
F0.11476365596652276
sg532
F0.092024539066177774
sg533
F0.20000000000000001
sg534
F0.17178340162390943
sg535
F0.075909272122303598
sg536
F0.17082753873704151
sg537
F0.15468607676445198
sg538
F0.086645318543181998
sg539
F0.15484236740486862
sg540
F0.12340447123363535
sg541
F0.24908261720810815
sg542
F0.07747877674877203
sg543
F0.11498532541428766
sg544
F0.15770942911225144
sg545
F0.12200599378403792
sg546
F0.10223095891192722
sg547
F0.17116861811513967
sg548
F0.15450147202903525
sg549
F0.24908261720810815
sg550
F0.14094651949435655
sg551
F0.24908261720810815
sg552
F0.12765957903984376
sg553
F0.20904979980794605
sg554
F0.12131354449638571
sg555
F0.20000000000000001
sg556
F0.1307754656726034
sg557
F0.10911295065797881
sg558
F0.15465773489297366
sg559
F0.12305455419302516
sg560
F0.17025493570182354
sg561
F0.22835985573722178
sg562
F0.24908261720810815
sg563
F0.10972862460539087
sg564
F0.18456222508635239
sg565
F0.086645318543181998
sg566
F0.10293422559433058
sg567
F0.11108966913754294
sg568
F0.12846739094110632
sg569
F0.24908261720810815
sg570
F0.10325654937141381
sg571
F0.10200664761548031
sg572
F0.14494256190632396
sg573
F0.113531587046864
sg574
F0.094631797974564086
sg575
F0.24908261720810815
sg576
F0.10893730992888764
sg577
F0.12765957903984376
sg578
F0.098341827930041453
sg579
F0.16921332968063349
sg580
F0.10822948208360179
sg581
F0.15468607676445198
sg582
F0.19999999999999998
sg583
F0.20000000000000001
sg584
F0.090139410011870313
sg585
F0.10395273513688477
sg586
F0.19999999999999998
sg587
F0.085134584141149175
sg588
F0.12433832111876025
sg589
F0.24908261720810815
sg590
F0.20000000000000001
sg591
F0.20000000000000001
sg592
F0.07824154429715692
sg593
F0.13163463269863612
sg594
F0.13838631060330403
sg595
F0.096236472401598772
sg596
F0.24908261720810815
sg597
F0.14014368206194322
sg598
F0.20000000000000001
sg599
F0.13383974612034916
sg600
F0.20000000000000001
sg601
F0.20000000000000001
sg602
F0.20000000000000001
sg603
F0.097292407826636035
sg604
F0.19122255953260017
sg605
F0.24908261720810815
sg606
F0.08246067722235205
sg607
F0.095705843352344944
sg608
F0.092024539066177774
sg609
F0.091716927165763421
sg610
F0.17128982014273653
sg611
F0.22835985573722178
sg612
F0.14624045493827248
sg613
F0.18897806624998392
sg614
F0.20000000000000001
sg615
F0.075915917033686178
sg616
F0.15303876103918476
sg617
F0.11008915117068974
sg618
F0.10200664761548031
sg619
F0.24908261720810815
sg620
F0.074469560661063944
sg621
F0.15490029075583461
sg622
F0.13383974612034916
sg623
F0.15468607676445198
sg624
F0.22816460319785789
sg625
F0.1083642840708087
sg626
F0.12368776262430534
sg627
F0.12131354449638571
sg628
F0.14712797002523703
sg629
F0.20000000000000001
sg630
F0.1179083373158861
sg631
F0.20000000000000001
sg632
F0.20000000000000001
sg633
F0.17128982014273653
sg634
L0L
sg635
F0.10766963533524634
sg636
F0.20000000000000001
sg637
F0.10434569416445413
sg638
F0.10239799249511149
sg639
F0.17120724799206993
sg640
F0.20000000000000001
sg641
F0.15450147202903525
sg642
F0.1159508849092693
sg643
L1L
sg644
F0.17338465991684121
sg645
F0.16917293432320002
sg646
F0.075915917033686178
sg647
F0.24908261720810815
sg648
F0.19999999999999998
sg649
F0.20000000000000001
sg650
F0.20000000000000001
sg651
F0.15434082366026375
sg652
F0.17168009752085772
sg653
F0.086645318543181998
sg654
F0.20000000000000001
sg655
F0.20000000000000001
sg656
F0.12305455419302516
sg657
F0.20000000000000004
sg658
F0.13914527946109412
sg659
F0.11825345577173639
sg660
F0.12864940647019343
sg661
F0.10936609661317744
sg662
F0.11513157654721767
sg663
F0.22819884430436524
sg664
F0.12754556176411122
sg665
F0.12313043769973048
sg666
F0.15434082366026375
sg667
F0.20834063426745306
sg668
F0.10921307349165654
sg669
F0.08767759048656508
sg670
F0.10893584895853811
sg671
F0.20000000000000001
sg672
F0.24908261720810815
sg673
F0.1143798076572633
sg674
F0.20000000000000001
sg675
F0.20000000000000001
sg676
F0.20000000000000001
sg677
F0.20000000000000001
sg678
F0.12143015088790687
sg679
I01
sg680
F0.15706189361484391
sa(dp684
g3
F0.25803002997851099
sg4
F0.25536240428322649
sg5
F0.19733251695838985
sg6
F0.20000000000000001
sg7
F0.10302439164267153
sg8
F0.28106460399071431
sg9
F0.20000000000000001
sg10
F0.097560978971291679
sg11
F0.25689159822984803
sg12
F0.18428709200000001
sg13
F0.20000000000000004
sg14
F0.10223095891192722
sg15
F0.14122055331700772
sg16
F0.15706189361484391
sg17
F0.1961943718229219
sg18
F0.15689050090528431
sg19
F0.20000000000000001
sg20
F0.18539419897232931
sg21
F0.085134584141149175
sg22
F0.20000000000000001
sg23
F0.20000000000000001
sg24
F0.10362148990566358
sg25
F0.28095040374595232
sg26
F0.20000000000000001
sg27
F0.13171985471491932
sg28
F0.092888827531527399
sg29
F0.20000000000000001
sg30
F0.18434591787745605
sg31
F0.076349754382680601
sg32
F0.19822474085979266
sg33
F0.10304513441385169
sg34
F0.10302439164267153
sg35
F0.12131354449638571
sg36
F0.16651832027417612
sg37
F0.12921974479219933
sg38
F0.33610466956633878
sg39
F0.12864940647019343
sg40
F0.16924592795186977
sg41
F0.21586526347345381
sg42
F0.33610466956633878
sg43
F0.10325654937141381
sg44
F0.11882063567445011
sg45
F0.12756507320230703
sg46
F0.16917293432320002
sg47
F0.20000000000000001
sg48
F0.079729999992700543
sg49
F0.097560978971291679
sg50
F0.33610466956633878
sg51
F0.11006180066373072
sg52
F0.33610466956633883
sg53
F0.20926936293134946
sg54
F0.18428709200000001
sg55
F0.15464682408236338
sg56
F0.23113338475583511
sg57
F0.16909146709767814
sg58
F0.1971132796451715
sg59
F0.097618314258607938
sg60
F0.19999999999999998
sg61
F0.14757535542201505
sg62
F0.076349754382680601
sg63
F0.19999999999999998
sg64
F0.12065478510838838
sg65
F0.20000000000000001
sg66
F0.12805247258277566
sg67
F0.087596507502278764
sg68
F0.15468607676445198
sg69
F0.1298586313220918
sg70
F0.098234816293382377
sg71
F0.10891447566813559
sg72
F0.18428709200000001
sg73
F0.14228723569719201
sg74
F0.086319601034980001
sg75
F0.07824154429715692
sg76
F0.12143015088790687
sg77
F0.12068310875817415
sg78
F0.10846668514193981
sg79
F0.18646990087608156
sg80
F0.1298586313220918
sg81
F0.20000000000000001
sg82
F0.08246067722235205
sg83
F0.20000000000000001
sg84
F0.098797914868461595
sg85
F0.1842668491672039
sg86
F0.12713989293628608
sg87
F0.18717216689402871
sg88
F0.096383355308438376
sg89
F0.20000000000000004
sg90
F0.30787168097616496
sg91
F0.1143798076572633
sg92
F0.15464682408236338
sg93
F0.11496398643521545
sg94
F0.11513157654721767
sg95
F0.20000000000000001
sg96
F0.25568138510941057
sg97
F0.20000000000000001
sg98
F0.097311822420265842
sg99
F0.20000000000000001
sg100
F0.33610466956633878
sg101
F0.1059548720542369
sg102
F0.090345687754960519
sg103
F0.092888827531527399
sg104
F0.11566959900533647
sg105
F0.14228723569719201
sg106
F0.16917293432320002
sg107
F0.12368776262430534
sg108
F0.20000000000000004
sg109
F0.20731174276838754
sg110
F0.15541898572721391
sg111
F0.10200664761548031
sg112
F0.11594805529531635
sg113
F0.11008915117068974
sg114
F0.20000000000000001
sg115
F0.097292407826636035
sg116
F0.083140639164359209
sg117
F0.20000000000000001
sg118
F0.12144394040153575
sg119
F0.12765957903984376
sg120
F0.20000000000000001
sg121
F0.13383974612034916
sg122
F0.20000000000000001
sg123
F0.15465773489297366
sg124
F0.097560978971291679
sg125
F0.33610466956633883
sg126
F0.17335007342657974
sg127
F0.33610466956633878
sg128
F0.12117410262327269
sg129
F0.076234089702422361
sg130
F0.18428709200000001
sg131
F0.13008777647035466
sg132
F0.33610466956633878
sg133
F0.07747877674877203
sg134
F0.28092334436245803
sg135
F0.086631192862533027
sg136
F0.16926933310783648
sg137
F0.1843114618184738
sg138
F0.10434569416445413
sg139
F0.15250016838888505
sg140
F0.16695317194650125
sg141
F0.18430626541674003
sg142
F0.12368776262430534
sg143
F0.16473095826795767
sg144
F0.20000000000000004
sg145
F0.12777584621850355
sg146
F0.20000000000000001
sg147
F0.079729999992700543
sg148
F0.12713989293628608
sg149
F0.20000000000000001
sg150
F0.15475953530129793
sg151
F0.1059548720542369
sg152
F0.13856687571624093
sg153
F0.11894634471898001
sg154
F0.086319601034980001
sg155
F0.20000000000000001
sg156
F0.1842668491672039
sg157
F0.075909272122303598
sg158
F0.20000000000000001
sg159
F0.20000000000000001
sg160
F0.28208557736750728
sg161
F0.33610466956633878
sg162
F0.20000000000000001
sg163
F0.14078947904942463
sg164
F0.097560978971291679
sg165
F0.12068310875817415
sg166
F0.23144911894918563
sg167
F0.20000000000000001
sg168
F0.15490029075583461
sg169
F0.12072600916141191
sg170
F0.08629594081598535
sg171
F0.096383355308438376
sg172
F0.098234816293382377
sg173
F0.092024539066177774
sg174
F0.1756850863760826
sg175
F0.20000000000000001
sg176
F0.16917293432320002
sg177
F0.093416062587182699
sg178
F0.14077368982864513
sg179
F0.18673436837612514
sg180
F0.12433832111876025
sg181
F0.20000000000000001
sg182
F0.33610466956633878
sg183
F0.08136014426852424
sg184
F0.14078947904942463
sg185
F0.15468607676445198
sg186
F0.20902762623698945
sg187
F0.12777584621850355
sg188
F0.094567544405141507
sg189
F0.16651832027417612
sg190
F0.19733251695838985
sg191
F0.15706189361484391
sg192
F0.1411465595365281
sg193
L68575L
sg194
F0.20000000000000001
sg195
F0.086645318543181998
sg196
F0.16917293432320002
sg197
F0.088197912103320494
sg198
F0.33610466956633878
sg199
F0.20000000000000001
sg200
F0.28095040374595232
sg201
F0.15484236740486862
sg202
F0.33610466956633878
sg203
F0.20000000000000001
sg204
F0.088197912103320494
sg205
F0.15730418670149024
sg206
F0.12131354449638571
sg207
F0.13600763847102801
sg208
F0.15541898572721391
sg209
F0.081421170306692603
sg210
F0.28078438032546643
sg211
F0.28159730455249388
sg212
F0.081027532312680603
sg213
F0.33610466956633878
sg214
F0.15689050090528431
sg215
F0.20000000000000001
sg216
F0.12864940647019343
sg217
F0.10891447566813559
sg218
F0.33610466956633878
sg219
F0.33610466956633878
sg220
F0.14915324983197698
sg221
F0.12805247258277566
sg222
F0.16743176411384147
sg223
F0.20000000000000001
sg224
F0.090345687754960519
sg225
F0.20000000000000001
sg226
F0.33610466956633878
sg227
F0.11441649251107913
sg228
F0.10972862460539087
sg229
F0.20000000000000001
sg230
F0.19340369136441449
sg231
F0.33610466956633878
sg232
F0.17808160115164315
sg233
F0.098234816293382377
sg234
F0.20808422648117184
sg235
F0.16909146709767814
sg236
F0.20000000000000001
sg237
F0.081038521952551193
sg238
F0.20000000000000001
sg239
F0.14084506830897153
sg240
F0.094567544405141507
sg241
F0.1211948019922644
sg242
F0.19759148950678229
sg243
F0.28095040374595232
sg244
F0.086631192862533027
sg245
F0.33610466956633878
sg246
F0.091716927165763421
sg247
F0.14051448593113258
sg248
F0.20865743472281434
sg249
F0.15897066882305982
sg250
F0.081038521952551193
sg251
F0.12131354449638571
sg252
F0.17025493570182354
sg253
F0.11441649251107913
sg254
F0.11008915117068974
sg255
F0.14084506830897153
sg256
F0.18429923600213857
sg257
F0.13856687571624093
sg258
F0.10333874110851408
sg259
F0.18428461096532919
sg260
F0.087596507502278764
sg261
F0.20000000000000001
sg262
F0.20000000000000001
sg263
F0.19775382342037695
sg264
F0.33610466956633878
sg265
F0.18433879967888972
sg266
F0.20000000000000001
sg267
F0.090685024958136073
sg268
F0.12765957903984376
sg269
F0.10333874110851408
sg270
F0.20000000000000001
sg271
F0.14757535542201505
sg272
F0.16836186015352328
sg273
F0.20000000000000001
sg274
F0.20000000000000001
sg275
F0.16606434878687065
sg276
F0.28110317322116241
sg277
F0.14494256190632396
sg278
F0.23597700451855305
sg279
F0.20000000000000004
sg280
F0.081421170306692603
sg281
F0.11498532541428766
sg282
F0.098990594199405715
sg283
F0.1059548720542369
sg284
F0.20000000000000001
sg285
F0.10325654937141381
sg286
F0.20000000000000001
sg287
F0.16915584118018229
sg288
F0.17646452076802591
sg289
F0.090685024958136073
sg290
F0.098340182933250697
sg291
F0.20000000000000001
sg292
F0.13383974612034916
sg293
F0.10921307349165654
sg294
F0.33610466956633878
sg295
F0.14084506830897153
sg296
F0.33610466956633878
sg297
F0.15475953530129793
sg298
F0.10395273513688477
sg299
F0.12455273061054968
sg300
F0.20000000000000001
sg301
F0.20650594885528084
sg302
F0.20000000000000001
sg303
F0.092024539066177774
sg304
F0.12756507320230703
sg305
F0.14494256190632396
sg306
F0.12144394040153575
sg307
F0.20000000000000001
sg308
F0.12823690944394622
sg309
F0.092049921613186148
sg310
F0.14622353939689703
sg311
F0.10325654937141381
sg312
F0.11524297631439667
sg313
F0.20000000000000001
sg314
F0.097311822420265842
sg315
F0.18639156460516537
sg316
F0.1059548720542369
sg317
F0.16916166722863396
sg318
F0.33610466956633878
sg319
F0.11894634471898001
sg320
F0.33610466956633878
sg321
F0.14084506830897153
sg322
F0.113531587046864
sg323
F0.15468607676445198
sg324
F0.12754556176411122
sg325
F0.20000000000000001
sg326
F0.20000000000000001
sg327
F0.20801701433378483
sg328
F0.12200599378403792
sg329
F0.081421170306692603
sg330
F0.20000000000000001
sg331
F0.20000000000000001
sg332
F0.20000000000000001
sg333
F0.33610466956633878
sg334
F0.14077368982864513
sg335
F0.10911295065797881
sg336
F0.12131354449638571
sg337
F0.094631797974564086
sg338
F0.20000000000000001
sg339
F0.18673436837612514
sg340
F0.33610466956633878
sg341
F0.20000000000000001
sg342
F0.098234816293382377
sg343
F0.18430626541674003
sg344
F0.10846668514193981
sg345
F0.11894634471898001
sg346
F0.086645318543181998
sg347
F0.18429923600213857
sg348
F0.14110942843348007
sg349
F0.083140639164359209
sg350
F0.15250016838888505
sg351
F0.14051448593113258
sg352
F0.17646452076802591
sg353
F0.098797914868461595
sg354
F0.1563758101151663
sg355
F0.081027532312680603
sg356
F0.30786636070114543
sg357
F0.18103059907892505
sg358
F0.19999999999999998
sg359
F0.086645318543181998
sg360
F0.33610466956633878
sg361
F0.20000000000000001
sg362
F0.13792116013968825
sg363
F0.1891057131131918
sg364
F0.16915584118018229
sg365
F0.098990594199405715
sg366
F0.18428289193986619
sg367
F0.14084506830897153
sg368
F0.17025493570182354
sg369
F0.18428461096532919
sg370
F0.20000000000000001
sg371
F0.097618314258607938
sg372
F0.17490773328321477
sg373
F0.33610466956633878
sg374
F0.081421170306692603
sg375
F0.20000000000000001
sg376
F0.33610466956633878
sg377
F0.15832744945507088
sg378
F0.25536240428322649
sg379
F0.11513157654721767
sg380
F0.11441649251107913
sg381
F0.20000000000000001
sg382
F0.08136014426852424
sg383
F0.10822948208360179
sg384
F0.18813587127753922
sg385
F0.20000000000000001
sg386
F0.14708070553635666
sg387
F0.16916166722863396
sg388
F0.091734291796863821
sg389
F0.33610466956633878
sg390
F0.28090504589034632
sg391
F0.18428709200000001
sg392
F0.14028640789337166
sg393
F0.30787852409820632
sg394
F0.12368776262430534
sg395
F0.11513157654721767
sg396
F0.12765957903984376
sg397
F0.12177714767934525
sg398
F0.33610466956633878
sg399
F0.33610466956633878
sg400
F0.33610466956633883
sg401
F0.081421170306692603
sg402
F0.16921332968063349
sg403
F0.10893584895853811
sg404
F0.097560978971291679
sg405
F0.16917293432320002
sg406
F0.076349754382680601
sg407
F0.18434591787745605
sg408
F0.17690703153371584
sg409
F0.10200664761548031
sg410
F0.33610466956633878
sg411
F0.20000000000000001
sg412
F0.13856687571624093
sg413
L2L
sg414
F0.14122055331700772
sg415
F0.12177714767934525
sg416
F0.19759148950678229
sg417
F0.18456222508635239
sg418
F0.11441649251107913
sg419
F0.14084506830897153
sg420
F0.16945681786251932
sg421
F0.33610466956633878
sg422
F0.30791971122865641
sg423
F0.20289069344657865
sg424
F0.092024539066177774
sg425
F0.33610466956633878
sg426
F0.20000000000000001
sg427
F0.33610466956633878
sg428
F0.12823690944394622
sg429
F0.094631797974564086
sg430
F0.11008915117068974
sg431
F0.18103059907892505
sg432
F0.16945681786251932
sg433
F0.20000000000000001
sg434
F0.11513157654721767
sg435
F0.15689050090528431
sg436
F0.33610466956633878
sg437
F0.19703991714968386
sg438
F0.14110942843348007
sg439
F0.33610466956633878
sg440
F0.076234089702422361
sg441
F0.10911295065797881
sg442
F0.10362148990566358
sg443
F0.18456222508635239
sg444
F0.25530100904703429
sg445
F0.12144394040153575
sg446
F0.15207873967250682
sg447
F0.14795417324348914
sg448
F0.10325654937141381
sg449
F0.20000000000000001
sg450
F0.17606777406999885
sg451
F0.25526602840509777
sg452
F0.12701739678318566
sg453
F0.076349754382680601
sg454
F0.10911295065797881
sg455
F0.15910200076130518
sg456
F0.10911295065797881
sg457
F0.30791183438238084
sg458
F0.098340182933250697
sg459
F0.11882063567445011
sg460
F0.33610466956633878
sg461
F0.25557839120691123
sg462
F0.16924592795186977
sg463
F0.092049921613186148
sg464
F0.20000000000000001
sg465
F0.25574985710727205
sg466
F0.086310495397064313
sg467
F0.20000000000000001
sg468
F0.20000000000000001
sg469
F0.18428289193986619
sg470
F0.086310495397064313
sg471
F0.20826291339948583
sg472
F0.20000000000000001
sg473
F0.12117410262327269
sg474
F0.20000000000000001
sg475
F0.092024539066177774
sg476
F0.093416062587182699
sg477
F0.13800253653935332
sg478
F0.11566959900533647
sg479
F0.08629594081598535
sg480
F0.12765957903984376
sg481
F0.20000000000000001
sg482
F0.12344655462392089
sg483
F0.17614976236895744
sg484
F0.21586526347345381
sg485
F0.30783522341327407
sg486
F0.13012432531779231
sg487
F0.33610466956633878
sg488
F0.10911295065797881
sg489
F0.14495145953984104
sg490
F0.18428709200000001
sg491
F0.33610466956633878
sg492
F0.11894634471898001
sg493
F0.19999999999999998
sg494
F0.094631797974564086
sg495
F0.11496398643521545
sg496
F0.12864940647019343
sg497
F0.1678154943169218
sg498
F0.10325654937141381
sg499
F0.074469560661063944
sg500
F0.18456222508635239
sg501
F0.33610466956633878
sg502
F0.1211948019922644
sg503
F0.091734291796863821
sg504
F0.11513157654721767
sg505
F0.20000000000000001
sg506
F0.20000000000000001
sg507
F0.1843114618184738
sg508
F0.11594805529531635
sg509
F0.10304513441385169
sg510
F0.081421170306692603
sg511
F0.076349754382680601
sg512
F0.23597700451855305
sg513
F0.14094651949435655
sg514
F0.14494256190632396
sg515
F0.19999999999999998
sg516
F0.33610466956633878
sg517
F0.11524297631439667
sg518
F0.15706189361484391
sg519
F0.097560978971291679
sg520
F0.30803111108045417
sg521
F0.25536240428322649
sg522
F0.20000000000000004
sg523
F0.17025493570182354
sg524
F0.16926933310783648
sg525
F0.13008777647035466
sg526
F0.30787852409820632
sg527
F0.20000000000000004
sg528
F0.33610466956633878
sg529
F0.076349754382680601
sg530
F0.11006180066373072
sg531
F0.1548586613518107
sg532
F0.092024539066177774
sg533
F0.20000000000000001
sg534
F0.23179940891477943
sg535
F0.075909272122303598
sg536
F0.23050959598707502
sg537
F0.15468607676445198
sg538
F0.086645318543181998
sg539
F0.15484236740486862
sg540
F0.16651832027417612
sg541
F0.33610466956633878
sg542
F0.07747877674877203
sg543
F0.11498532541428766
sg544
F0.21280840932782571
sg545
F0.12200599378403792
sg546
F0.10223095891192722
sg547
F0.23096983834744736
sg548
F0.15450147202903525
sg549
F0.33610466956633878
sg550
F0.14094651949435655
sg551
F0.33610466956633878
sg552
F0.12765957903984376
sg553
F0.28208557736750728
sg554
F0.12131354449638571
sg555
F0.20000000000000001
sg556
F0.17646452076802591
sg557
F0.10911295065797881
sg558
F0.15465773489297366
sg559
F0.16604615263506844
sg560
F0.17025493570182354
sg561
F0.3081419920630144
sg562
F0.33610466956633878
sg563
F0.10972862460539087
sg564
F0.18456222508635239
sg565
F0.086645318543181998
sg566
F0.138896380117702
sg567
F0.14990109288321846
sg568
F0.17335007342657974
sg569
F0.33610466956633878
sg570
F0.10325654937141381
sg571
F0.10200664761548031
sg572
F0.14494256190632396
sg573
F0.113531587046864
sg574
F0.094631797974564086
sg575
F0.33610466956633883
sg576
F0.1469967634333286
sg577
F0.12765957903984376
sg578
F0.13269953540499568
sg579
F0.16921332968063349
sg580
F0.10822948208360179
sg581
F0.15468607676445198
sg582
F0.19999999999999998
sg583
F0.20000000000000001
sg584
F0.12163143681613041
sg585
F0.10395273513688477
sg586
F0.19999999999999998
sg587
F0.085134584141149175
sg588
F0.12433832111876025
sg589
F0.33610466956633878
sg590
F0.20000000000000001
sg591
F0.20000000000000001
sg592
F0.07824154429715692
sg593
F0.17762385517932988
sg594
F0.18673436837612514
sg595
F0.1298586313220918
sg596
F0.33610466956633878
sg597
F0.1891057131131918
sg598
F0.20000000000000001
sg599
F0.13383974612034916
sg600
F0.20000000000000001
sg601
F0.20000000000000001
sg602
F0.20000000000000001
sg603
F0.097292407826636035
sg604
F0.25803002997851099
sg605
F0.33610466956633878
sg606
F0.08246067722235205
sg607
F0.12914261627752227
sg608
F0.092024539066177774
sg609
F0.091716927165763421
sg610
F0.23113338475583511
sg611
F0.3081419920630144
sg612
F0.19733251695838985
sg613
F0.25500137755164448
sg614
F0.20000000000000001
sg615
F0.075915917033686178
sg616
F0.20650594885528084
sg617
F0.11008915117068974
sg618
F0.10200664761548031
sg619
F0.33610466956633878
sg620
F0.074469560661063944
sg621
F0.15490029075583461
sg622
F0.13383974612034916
sg623
F0.15468607676445198
sg624
F0.30787852409820632
sg625
F0.14622353939689703
sg626
F0.12368776262430534
sg627
F0.12131354449638571
sg628
F0.19853010339931818
sg629
F0.20000000000000001
sg630
F0.15910200076130518
sg631
F0.20000000000000001
sg632
F0.20000000000000001
sg633
F0.23113338475583511
sg634
L0L
sg635
F0.14528620106976764
sg636
F0.20000000000000001
sg637
F0.10434569416445413
sg638
F0.13817280313491725
sg639
F0.23102196435353547
sg640
F0.20000000000000001
sg641
F0.15450147202903525
sg642
F0.15646067274856756
sg643
L2L
sg644
F0.23396009919284302
sg645
F0.16917293432320002
sg646
F0.075915917033686178
sg647
F0.33610466956633878
sg648
F0.19999999999999998
sg649
F0.20000000000000001
sg650
F0.20000000000000001
sg651
F0.20826291339948583
sg652
F0.23166001343303036
sg653
F0.086645318543181998
sg654
F0.20000000000000001
sg655
F0.20000000000000001
sg656
F0.16604615263506844
sg657
F0.20000000000000004
sg658
F0.18775849836166139
sg659
F0.15956769333297063
sg660
F0.12864940647019343
sg661
F0.14757535542201505
sg662
F0.11513157654721767
sg663
F0.30792472802812015
sg664
F0.12754556176411122
sg665
F0.16614854758029829
sg666
F0.20826291339948583
sg667
F0.28112865049590591
sg668
F0.10921307349165654
sg669
F0.11830953082622601
sg670
F0.10893584895853811
sg671
F0.20000000000000001
sg672
F0.33610466956633878
sg673
F0.1143798076572633
sg674
F0.20000000000000001
sg675
F0.20000000000000001
sg676
F0.20000000000000001
sg677
F0.20000000000000001
sg678
F0.12143015088790687
sg679
I01
sg680
F0.15706189361484391
sa.