(lp1
(dp2
S'rpr30 TOT_CORR_classes_min'
p3
F0.26060117752510581
sS'rpr30 TOT_CORR_spo'
p4
F0.26060117752510581
sS'rpr55 INTERACT_spo'
p5
F0.33251294378288854
sS'pr40 PMI_classes_min'
p6
F0.33333333333333331
sS'r70 w_join'
p7
F0.44785294654876318
sS'rpr20 PMI_pred_obj'
p8
F0.23129324868038284
sS'r10 INTERACT_classes_max'
p9
F0.33333333333333331
sS'r75 no_w'
p10
F0.45679042131329561
sS'rpr30 p_o'
p11
F0.26060117752510581
sS'r10 no_w'
p12
F0.34579441700960217
sS'pr20 INTERACT_classes_max'
p13
F0.33333333333333331
sS'r70 IC_obj'
p14
F0.44785294654876318
sS'pr40 IC_pred'
p15
F0.39393914048820466
sS'pr30 TOT_CORR_classes_min'
p16
F0.37669383999999995
sS'rpr55 IC_obj'
p17
F0.33251294378288854
sS'rpr75 TOT_CORR_spo'
p18
F0.38594287564963675
sS'pr85 PMI_classes_min'
p19
F0.33333333333333331
sS'rpr60 IC_obj'
p20
F0.34629031957776524
sS'r85 IC_obj'
p21
F0.47441161634059764
sS'r65 PMI_classes_max'
p22
F0.33333333333333331
sS'r85 PMI_classes_min'
p23
F0.33333333333333331
sS'pr75 p_o'
p24
F0.45679042131329561
sS'rpr20 no_w'
p25
F0.23129324868038284
sS'pr40 INTERACT_classes_min'
p26
F0.33333333333333331
sS'rpr90 w_ic_pmi'
p27
F0.42284635768523909
sS'r80 w_ic_pmi'
p28
F0.46564883900332754
sS'pr75 PMI_classes_min'
p29
F0.33333333333333331
sS'pr10 p_o'
p30
F0.34579441700960217
sS'r95 no_w'
p31
F0.4915979180538394
sS'rpr55 w_ic_pmi'
p32
F0.33251294378288854
sS'pr70 w_comb'
p33
F0.44785294654876318
sS'pr70 w_join'
p34
F0.44785294654876318
sS'pr55 INTERACT_spo'
p35
F0.42078398819389246
sS'rpr70 INTERACT_spo'
p36
F0.37302036926055238
sS'rpr90 w_comb'
p37
F0.42284635768523915
sS'rpr80 PMI_classes_max'
p38
F0.17525127167821025
sS'pr55 TOT_CORR_classes_min'
p39
F0.42078398819389246
sS'r20 w_ic_pmi'
p40
F0.36046511543971954
sS'rpr50 TOT_CORR_classes_max'
p41
F0.31848975381575506
sS'rpr55 PMI_classes_min'
p42
F0.17525127167821025
sS'pr70 no_w'
p43
F0.44785294654876318
sS'r60 p_o'
p44
F0.42982468648959993
sS'r50 w_comb'
p45
F0.41176481964984113
sS'pr20 INTERACT_spo'
p46
F0.36046511543971954
sS'r65 PMI_classes_min'
p47
F0.33333333333333331
sS'pr90 IC_obj'
p48
F0.48306577213107421
sS'pr75 TOT_CORR_spo'
p49
F0.45679042131329561
sS'rpr95 PMI_classes_min'
p50
F0.17525127167821025
sS'pr65 IC_pred'
p51
F0.43885660335081089
sS'rpr20 INTERACT_classes_max'
p52
F0.17525127167821025
sS'rpr50 IC_pred'
p53
F0.31848975381575517
sS'r10 INTERACT_spo'
p54
F0.34579441700960217
sS'pr30 w_join'
p55
F0.37669383999999995
sS'rpr40 INTERACT_spo'
p56
F0.28982102778571306
sS'r20 IC_obj'
p57
F0.36046511543971954
sS'rpr55 w_comb'
p58
F0.33251294378288854
sS'r75 PMI_pred_obj'
p59
F0.45679042131329561
sS'pr30 INTERACT_classes_max'
p60
F0.33333333333333331
sS'rpr80 TOT_CORR_spo'
p61
F0.39855867033531434
sS'pr95 no_w'
p62
F0.4915979180538394
sS'pr30 PMI_classes_max'
p63
F0.33333333333333331
sS'rpr95 w_join'
p64
F0.43451654139079671
sS'pr70 PMI_classes_min'
p65
F0.33333333333333331
sS'pr50 w_ic_pmi'
p66
F0.41176481964984113
sS'r85 w_ic_pmi'
p67
F0.47441161634059764
sS'pr30 no_w'
p68
F0.37669383999999995
sS'rpr90 no_w'
p69
F0.42284635768523915
sS'r90 TOT_CORR_classes_min'
p70
F0.4830657721310741
sS'r65 w_join'
p71
F0.43885660335081084
sS'pr10 INTERACT_spo'
p72
F0.34579441700960217
sS'r40 p_o'
p73
F0.39393914048820466
sS'pr95 p_o'
p74
F0.49159791805383923
sS'pr95 IC_pred'
p75
F0.4915979180538394
sS'pr55 PMI_pred_obj'
p76
F0.42078398819389246
sS'pr55 IC_obj'
p77
F0.42078398819389246
sS'r70 p_o'
p78
F0.44785294654876318
sS'rpr60 w_comb'
p79
F0.34629031957776524
sS'rpr90 TOT_CORR_spo'
p80
F0.42284635768523915
sS'r10 PMI_classes_max'
p81
F0.33333333333333331
sS'pr90 w_ic_pmi'
p82
F0.4830657721310741
sS'r70 PMI_classes_max'
p83
F0.33333333333333331
sS'r75 IC_pred'
p84
F0.45679042131329561
sS'pr10 IC_obj'
p85
F0.34579441700960217
sS'r50 IC_obj'
p86
F0.41176481964984113
sS'rpr60 PMI_pred_obj'
p87
F0.34629031957776524
sS'r75 IC_obj'
p88
F0.45679042131329561
sS'r20 PMI_classes_min'
p89
F0.33333333333333331
sS'rpr10 w_comb'
p90
F0.20254950937966429
sS'pr60 IC_obj'
p91
F0.42982468648959993
sS'r30 w_join'
p92
F0.37669383999999995
sS'pr60 w_join'
p93
F0.42982468648959993
sS'r60 INTERACT_spo'
p94
F0.42982468648959993
sS'r70 INTERACT_classes_min'
p95
F0.33333333333333331
sS'rpr30 w_ic_pmi'
p96
F0.26060117752510581
sS'r50 INTERACT_classes_min'
p97
F0.33333333333333331
sS'pr75 w_comb'
p98
F0.45679042131329561
sS'pr80 INTERACT_classes_min'
p99
F0.33333333333333331
sS'rpr75 PMI_classes_min'
p100
F0.17525127167821025
sS'pr80 TOT_CORR_classes_min'
p101
F0.46564883900332754
sS'pr90 p_o'
p102
F0.4830657721310741
sS'pr80 w_ic_pmi'
p103
F0.46564883900332754
sS'r60 w_ic_pmi'
p104
F0.42982468648959993
sS'pr40 p_o'
p105
F0.39393914048820466
sS'r20 no_w'
p106
F0.36046511543971954
sS'r60 TOT_CORR_classes_max'
p107
F0.42982468648959993
sS'r20 INTERACT_classes_min'
p108
F0.33333333333333331
sS'rpr50 IC_obj'
p109
F0.31848975381575517
sS'pr30 p_o'
p110
F0.37669383999999995
sS'pr85 TOT_CORR_classes_max'
p111
F0.47441161634059764
sS'pr60 IC_pred'
p112
F0.42982468648959993
sS'pr75 TOT_CORR_classes_max'
p113
F0.45679042131329561
sS'pr80 PMI_classes_min'
p114
F0.33333333333333331
sS'r75 w_join'
p115
F0.45679042131329561
sS'pr90 IC_pred'
p116
F0.48306577213107421
sS'pr85 INTERACT_classes_max'
p117
F0.33333333333333331
sS'rpr95 no_w'
p118
F0.43451654139079687
sS'r50 no_w'
p119
F0.41176481964984113
sS'pr90 INTERACT_classes_min'
p120
F0.33333333333333331
sS'r50 TOT_CORR_classes_max'
p121
F0.41176481964984113
sS'pr90 PMI_classes_max'
p122
F0.33333333333333331
sS'r30 w_comb'
p123
F0.37669383999999995
sS'pr75 no_w'
p124
F0.45679042131329561
sS'rpr20 PMI_classes_min'
p125
F0.17525127167821025
sS'rpr75 TOT_CORR_classes_max'
p126
F0.38594287564963675
sS'rpr50 PMI_classes_min'
p127
F0.17525127167821025
sS'pr55 w_join'
p128
F0.42078398819389246
sS'r95 PMI_pred_obj'
p129
F0.4915979180538394
sS'r10 TOT_CORR_spo'
p130
F0.34579441700960217
sS'pr50 p_o'
p131
F0.41176481964984113
sS'rpr70 PMI_classes_max'
p132
F0.17525127167821025
sS'r95 w_ic_pmi'
p133
F0.49159791805383923
sS'rpr20 w_comb'
p134
F0.23129324868038284
sS'pr85 PMI_pred_obj'
p135
F0.47441161634059764
sS'r20 IC_pred'
p136
F0.36046511543971954
sS'r10 IC_pred'
p137
F0.34579441700960217
sS'pr70 IC_pred'
p138
F0.44785294654876318
sS'rpr90 TOT_CORR_classes_max'
p139
F0.42284635768523909
sS'rpr70 PMI_pred_obj'
p140
F0.37302036926055238
sS'r10 w_ic_pmi'
p141
F0.34579441700960217
sS'pr60 TOT_CORR_classes_min'
p142
F0.42982468648959993
sS'rpr70 IC_obj'
p143
F0.37302036926055238
sS'pr20 PMI_classes_min'
p144
F0.33333333333333331
sS'pr50 PMI_pred_obj'
p145
F0.41176481964984113
sS'r60 INTERACT_classes_min'
p146
F0.33333333333333331
sS'r90 IC_obj'
p147
F0.48306577213107421
sS'pr50 IC_obj'
p148
F0.41176481964984113
sS'r40 INTERACT_classes_max'
p149
F0.33333333333333331
sS'pr30 PMI_pred_obj'
p150
F0.37669383999999995
sS'r80 TOT_CORR_classes_min'
p151
F0.46564883900332754
sS'rpr85 TOT_CORR_spo'
p152
F0.41086065843846292
sS'pr65 TOT_CORR_classes_max'
p153
F0.43885660335081084
sS'r95 p_o'
p154
F0.49159791805383923
sS'pr95 PMI_classes_min'
p155
F0.33333333333333331
sS'r10 IC_obj'
p156
F0.34579441700960217
sS'pr95 w_join'
p157
F0.49159791805383923
sS'pr50 PMI_classes_min'
p158
F0.33333333333333331
sS'pr60 INTERACT_classes_min'
p159
F0.33333333333333331
sS'rpr20 TOT_CORR_classes_max'
p160
F0.23129324868038284
sS'rpr10 INTERACT_classes_max'
p161
F0.17525127167821028
sS'r85 INTERACT_classes_min'
p162
F0.33333333333333331
sS'pr40 w_comb'
p163
F0.39393914048820466
sS'r75 TOT_CORR_spo'
p164
F0.45679042131329561
sS'r55 IC_obj'
p165
F0.42078398819389246
sS'rpr40 PMI_pred_obj'
p166
F0.28982102778571306
sS'pr65 PMI_classes_min'
p167
F0.33333333333333331
sS'r30 IC_pred'
p168
F0.37669383999999995
sS'rpr95 w_comb'
p169
F0.43451654139079687
sS'r85 w_join'
p170
F0.47441161634059764
sS'pr75 IC_obj'
p171
F0.45679042131329561
sS'pr90 TOT_CORR_classes_min'
p172
F0.4830657721310741
sS'pr80 no_w'
p173
F0.46564883900332754
sS'rpr70 p_o'
p174
F0.37302036926055232
sS'pr55 PMI_classes_max'
p175
F0.33333333333333331
sS'pr20 no_w'
p176
F0.36046511543971954
sS'pr80 IC_pred'
p177
F0.46564883900332754
sS'r40 w_join'
p178
F0.39393914048820466
sS'rpr60 no_w'
p179
F0.34629031957776524
sS'r55 p_o'
p180
F0.42078398819389246
sS'r95 INTERACT_classes_min'
p181
F0.33333333333333331
sS'rpr65 INTERACT_classes_max'
p182
F0.17525127167821025
sS'r90 PMI_pred_obj'
p183
F0.48306577213107421
sS'r40 w_comb'
p184
F0.39393914048820466
sS'r30 INTERACT_spo'
p185
F0.37669383999999995
sS'rpr50 w_ic_pmi'
p186
F0.31848975381575506
sS'r50 PMI_pred_obj'
p187
F0.41176481964984113
sS'pr85 p_o'
p188
F0.47441161634059764
sS'rpr70 no_w'
p189
F0.37302036926055238
sS'rpr55 TOT_CORR_spo'
p190
F0.33251294378288854
sS'pr30 TOT_CORR_classes_max'
p191
F0.37669383999999995
sS'rpr85 IC_pred'
p192
F0.41086065843846292
sS'entity'
p193
L412L
sS'r90 PMI_classes_min'
p194
F0.33333333333333331
sS'pr85 no_w'
p195
F0.47441161634059764
sS'r20 TOT_CORR_spo'
p196
F0.36046511543971954
sS'r85 IC_pred'
p197
F0.47441161634059764
sS'rpr65 PMI_classes_max'
p198
F0.17525127167821025
sS'pr75 PMI_classes_max'
p199
F0.33333333333333331
sS'rpr20 INTERACT_spo'
p200
F0.23129324868038284
sS'r30 w_ic_pmi'
p201
F0.37669383999999995
sS'rpr55 INTERACT_classes_max'
p202
F0.17525127167821025
sS'pr40 INTERACT_classes_max'
p203
F0.33333333333333331
sS'pr85 IC_pred'
p204
F0.47441161634059764
sS'rpr75 PMI_pred_obj'
p205
F0.38594287564963675
sS'pr55 no_w'
p206
F0.42078398819389246
sS'rpr85 IC_obj'
p207
F0.41086065843846292
sS'r30 p_o'
p208
F0.37669383999999995
sS'r90 INTERACT_spo'
p209
F0.48306577213107421
sS'rpr20 IC_obj'
p210
F0.23129324868038284
sS'rpr20 p_o'
p211
F0.23129324868038284
sS'pr90 w_join'
p212
F0.4830657721310741
sS'rpr90 PMI_classes_min'
p213
F0.17525127167821025
sS'rpr75 INTERACT_spo'
p214
F0.38594287564963675
sS'r55 PMI_classes_max'
p215
F0.33333333333333331
sS'pr55 TOT_CORR_classes_max'
p216
F0.42078398819389246
sS'pr65 w_join'
p217
F0.43885660335081084
sS'rpr85 INTERACT_classes_min'
p218
F0.17525127167821025
sS'rpr90 INTERACT_classes_min'
p219
F0.17525127167821025
sS'rpr80 w_ic_pmi'
p220
F0.39855867033531434
sS'r50 w_ic_pmi'
p221
F0.41176481964984113
sS'rpr75 p_o'
p222
F0.38594287564963675
sS'r55 INTERACT_classes_min'
p223
F0.33333333333333331
sS'r90 p_o'
p224
F0.4830657721310741
sS'pr95 INTERACT_classes_min'
p225
F0.33333333333333331
sS'rpr40 INTERACT_classes_min'
p226
F0.17525127167821025
sS'r70 TOT_CORR_classes_max'
p227
F0.44785294654876318
sS'r65 w_ic_pmi'
p228
F0.43885660335081084
sS'pr50 INTERACT_classes_min'
p229
F0.33333333333333331
sS'rpr60 p_o'
p230
F0.34629031957776518
sS'rpr95 INTERACT_classes_min'
p231
F0.17525127167821025
sS'rpr65 IC_pred'
p232
F0.35979805548172827
sS'r90 TOT_CORR_classes_max'
p233
F0.4830657721310741
sS'rpr50 w_comb'
p234
F0.31848975381575517
sS'pr20 IC_obj'
p235
F0.36046511543971954
sS'r80 INTERACT_classes_max'
p236
F0.33333333333333331
sS'pr90 w_comb'
p237
F0.48306577213107421
sS'r95 PMI_classes_max'
p238
F0.33333333333333331
sS'r40 TOT_CORR_spo'
p239
F0.39393914048820466
sS'r85 p_o'
p240
F0.47441161634059764
sS'pr55 w_comb'
p241
F0.42078398819389246
sS'rpr60 TOT_CORR_classes_max'
p242
F0.34629031957776518
sS'rpr20 TOT_CORR_spo'
p243
F0.23129324868038284
sS'r85 PMI_pred_obj'
p244
F0.47441161634059764
sS'rpr10 PMI_classes_max'
p245
F0.17525127167821028
sS'pr80 w_join'
p246
F0.46564883900332754
sS'r40 IC_obj'
p247
F0.39393914048820466
sS'rpr50 PMI_pred_obj'
p248
F0.31848975381575517
sS'rpr75 IC_pred'
p249
F0.38594287564963675
sS'r90 w_comb'
p250
F0.48306577213107421
sS'r55 INTERACT_spo'
p251
F0.42078398819389246
sS'r20 TOT_CORR_classes_min'
p252
F0.36046511543971954
sS'pr70 TOT_CORR_classes_max'
p253
F0.44785294654876318
sS'r75 TOT_CORR_classes_min'
p254
F0.45679042131329561
sS'r40 no_w'
p255
F0.39393914048820466
sS'r10 PMI_pred_obj'
p256
F0.34579441700960217
sS'rpr85 INTERACT_spo'
p257
F0.41086065843846292
sS'r70 PMI_pred_obj'
p258
F0.44785294654876318
sS'r10 w_comb'
p259
F0.34579441700960217
sS'pr85 w_ic_pmi'
p260
F0.47441161634059764
sS'r70 PMI_classes_min'
p261
F0.33333333333333331
sS'r10 PMI_classes_min'
p262
F0.33333333333333331
sS'rpr55 PMI_pred_obj'
p263
F0.33251294378288854
sS'rpr30 PMI_classes_min'
p264
F0.17525127167821025
sS'rpr65 p_o'
p265
F0.35979805548172816
sS'pr40 PMI_classes_max'
p266
F0.33333333333333331
sS'pr80 IC_obj'
p267
F0.46564883900332754
sS'pr50 no_w'
p268
F0.41176481964984113
sS'pr70 PMI_pred_obj'
p269
F0.44785294654876318
sS'r10 INTERACT_classes_min'
p270
F0.33333333333333331
sS'rpr80 no_w'
p271
F0.39855867033531434
sS'rpr70 IC_pred'
p272
F0.37302036926055238
sS'r80 PMI_classes_max'
p273
F0.33333333333333331
sS'pr60 PMI_classes_max'
p274
F0.33333333333333331
sS'rpr70 w_join'
p275
F0.37302036926055232
sS'rpr20 w_ic_pmi'
p276
F0.23129324868038284
sS'pr40 TOT_CORR_classes_min'
p277
F0.39393914048820466
sS'rpr40 TOT_CORR_classes_min'
p278
F0.28982102778571306
sS'r20 INTERACT_classes_max'
p279
F0.33333333333333331
sS'pr90 no_w'
p280
F0.48306577213107421
sS'pr60 w_comb'
p281
F0.42982468648959993
sS'pr80 p_o'
p282
F0.46564883900332754
sS'pr80 TOT_CORR_classes_max'
p283
F0.46564883900332754
sS'pr80 INTERACT_classes_max'
p284
F0.33333333333333331
sS'r70 no_w'
p285
F0.44785294654876318
sS'pr90 INTERACT_classes_max'
p286
F0.33333333333333331
sS'pr20 w_join'
p287
F0.36046511543971954
sS'rpr65 INTERACT_spo'
p288
F0.35979805548172827
sS'r80 IC_obj'
p289
F0.46564883900332754
sS'pr75 w_ic_pmi'
p290
F0.45679042131329561
sS'r50 PMI_classes_max'
p291
F0.33333333333333331
sS'pr50 TOT_CORR_classes_min'
p292
F0.41176481964984113
sS'r65 PMI_pred_obj'
p293
F0.43885660335081089
sS'rpr50 PMI_classes_max'
p294
F0.17525127167821025
sS'r40 INTERACT_spo'
p295
F0.39393914048820466
sS'rpr70 PMI_classes_min'
p296
F0.17525127167821025
sS'r30 PMI_pred_obj'
p297
F0.37669383999999995
sS'r70 w_ic_pmi'
p298
F0.44785294654876318
sS'rpr95 IC_pred'
p299
F0.43451654139079687
sS'r85 PMI_classes_max'
p300
F0.33333333333333331
sS'rpr55 TOT_CORR_classes_min'
p301
F0.33251294378288854
sS'pr55 INTERACT_classes_min'
p302
F0.33333333333333331
sS'r80 TOT_CORR_spo'
p303
F0.46564883900332754
sS'pr50 w_comb'
p304
F0.41176481964984113
sS'r40 TOT_CORR_classes_min'
p305
F0.39393914048820466
sS'rpr95 TOT_CORR_spo'
p306
F0.43451654139079687
sS'r90 INTERACT_classes_min'
p307
F0.33333333333333331
sS'pr50 IC_pred'
p308
F0.41176481964984113
sS'r80 PMI_pred_obj'
p309
F0.46564883900332754
sS'rpr95 TOT_CORR_classes_min'
p310
F0.43451654139079671
sS'r70 INTERACT_spo'
p311
F0.44785294654876318
sS'pr60 PMI_pred_obj'
p312
F0.42982468648959993
sS'pr75 INTERACT_classes_min'
p313
F0.33333333333333331
sS'r75 w_comb'
p314
F0.45679042131329561
sS'rpr60 w_join'
p315
F0.34629031957776518
sS'r80 TOT_CORR_classes_max'
p316
F0.46564883900332754
sS'r20 w_comb'
p317
F0.36046511543971954
sS'rpr75 PMI_classes_max'
p318
F0.17525127167821025
sS'pr65 TOT_CORR_classes_min'
p319
F0.43885660335081084
sS'rpr75 INTERACT_classes_max'
p320
F0.17525127167821025
sS'pr40 TOT_CORR_spo'
p321
F0.39393914048820466
sS'pr65 p_o'
p322
F0.43885660335081084
sS'r30 no_w'
p323
F0.37669383999999995
sS'r50 w_join'
p324
F0.41176481964984113
sS'pr50 PMI_classes_max'
p325
F0.33333333333333331
sS'pr95 PMI_classes_max'
p326
F0.33333333333333331
sS'rpr50 w_join'
p327
F0.31848975381575506
sS'r55 IC_pred'
p328
F0.42078398819389246
sS'r90 no_w'
p329
F0.48306577213107421
sS'r80 INTERACT_classes_min'
p330
F0.33333333333333331
sS'r60 PMI_classes_max'
p331
F0.33333333333333331
sS'r95 INTERACT_classes_max'
p332
F0.33333333333333331
sS'rpr65 INTERACT_classes_min'
p333
F0.17525127167821025
sS'pr40 w_join'
p334
F0.39393914048820466
sS'r65 no_w'
p335
F0.43885660335081089
sS'pr55 TOT_CORR_spo'
p336
F0.42078398819389246
sS'r95 TOT_CORR_classes_max'
p337
F0.49159791805383923
sS'pr55 PMI_classes_min'
p338
F0.33333333333333331
sS'rpr60 INTERACT_spo'
p339
F0.34629031957776524
sS'rpr75 INTERACT_classes_min'
p340
F0.17525127167821025
sS'pr0'
p341
F0.33333333333333331
sS'pr90 TOT_CORR_classes_max'
p342
F0.4830657721310741
sS'pr10 w_ic_pmi'
p343
F0.34579441700960217
sS'pr70 p_o'
p344
F0.44785294654876318
sS'r65 TOT_CORR_classes_max'
p345
F0.43885660335081084
sS'r85 INTERACT_spo'
p346
F0.47441161634059764
sS'pr10 PMI_pred_obj'
p347
F0.34579441700960217
sS'r40 w_ic_pmi'
p348
F0.39393914048820466
sS'r90 IC_pred'
p349
F0.48306577213107421
sS'rpr90 TOT_CORR_classes_min'
p350
F0.42284635768523909
sS'pr40 IC_obj'
p351
F0.39393914048820466
sS'rpr65 no_w'
p352
F0.35979805548172827
sS'pr75 IC_pred'
p353
F0.45679042131329561
sS'rpr75 w_join'
p354
F0.38594287564963675
sS'r90 w_join'
p355
F0.4830657721310741
sS'rpr10 w_join'
p356
F0.20254950937966429
sS'rpr70 TOT_CORR_classes_max'
p357
F0.37302036926055232
sS'r30 PMI_classes_min'
p358
F0.33333333333333331
sS'r85 no_w'
p359
F0.47441161634059764
sS'rpr80 INTERACT_classes_min'
p360
F0.17525127167821025
sS'pr70 INTERACT_classes_max'
p361
F0.33333333333333331
sS'rpr85 w_join'
p362
F0.41086065843846287
sS'rpr65 TOT_CORR_classes_max'
p363
F0.35979805548172816
sS'r20 w_join'
p364
F0.36046511543971954
sS'r80 p_o'
p365
F0.46564883900332754
sS'pr10 w_join'
p366
F0.34579441700960217
sS'pr40 no_w'
p367
F0.39393914048820466
sS'pr20 TOT_CORR_classes_min'
p368
F0.36046511543971954
sS'pr10 w_comb'
p369
F0.34579441700960217
sS'pr85 PMI_classes_max'
p370
F0.33333333333333331
sS'pr75 PMI_pred_obj'
p371
F0.45679042131329561
sS'rpr65 IC_obj'
p372
F0.35979805548172827
sS'rpr60 INTERACT_classes_max'
p373
F0.17525127167821025
sS'pr90 TOT_CORR_spo'
p374
F0.48306577213107421
sS'r55 PMI_classes_min'
p375
F0.33333333333333331
sS'rpr90 PMI_classes_max'
p376
F0.17525127167821025
sS'rpr75 w_ic_pmi'
p377
F0.38594287564963675
sS'rpr30 INTERACT_spo'
p378
F0.26060117752510581
sS'r60 no_w'
p379
F0.42982468648959993
sS'r70 TOT_CORR_classes_min'
p380
F0.44785294654876318
sS'r55 INTERACT_classes_max'
p381
F0.33333333333333331
sS'pr90 PMI_pred_obj'
p382
F0.48306577213107421
sS'r65 IC_obj'
p383
F0.43885660335081089
sS'rpr60 IC_pred'
p384
F0.34629031957776524
sS'pr95 INTERACT_classes_max'
p385
F0.33333333333333331
sS'rpr80 w_comb'
p386
F0.39855867033531434
sS'pr20 w_comb'
p387
F0.36046511543971954
sS'pr80 w_comb'
p388
F0.46564883900332754
sS'rpr90 INTERACT_classes_max'
p389
F0.17525127167821025
sS'rpr20 w_join'
p390
F0.23129324868038284
sS'pr10 no_w'
p391
F0.34579441700960217
sS'rpr85 w_ic_pmi'
p392
F0.41086065843846287
sS'rpr10 INTERACT_spo'
p393
F0.20254950937966429
sS'pr60 TOT_CORR_classes_max'
p394
F0.42982468648959993
sS'pr60 INTERACT_spo'
p395
F0.42982468648959993
sS'pr50 INTERACT_spo'
p396
F0.41176481964984113
sS'pr55 w_ic_pmi'
p397
F0.42078398819389246
sS'rpr40 INTERACT_classes_max'
p398
F0.17525127167821025
sS'rpr70 INTERACT_classes_max'
p399
F0.17525127167821025
sS'rpr20 PMI_classes_max'
p400
F0.17525127167821025
sS'r90 TOT_CORR_spo'
p401
F0.48306577213107421
sS'pr20 PMI_pred_obj'
p402
F0.36046511543971954
sS'r65 w_comb'
p403
F0.43885660335081089
sS'r75 INTERACT_spo'
p404
F0.45679042131329561
sS'r20 INTERACT_spo'
p405
F0.36046511543971954
sS'pr95 INTERACT_spo'
p406
F0.4915979180538394
sS'r10 p_o'
p407
F0.34579441700960217
sS'rpr65 PMI_pred_obj'
p408
F0.35979805548172827
sS'r85 TOT_CORR_classes_min'
p409
F0.47441161634059764
sS'rpr40 PMI_classes_min'
p410
F0.17525127167821025
sS'pr10 INTERACT_classes_max'
p411
F0.33333333333333331
sS'rpr85 no_w'
p412
F0.41086065843846292
sS'degree'
p413
L1L
sS'r40 IC_pred'
p414
F0.39393914048820466
sS'r55 w_ic_pmi'
p415
F0.42078398819389246
sS'rpr60 TOT_CORR_classes_min'
p416
F0.34629031957776518
sS'r10 TOT_CORR_classes_max'
p417
F0.34579441700960217
sS'pr70 TOT_CORR_classes_min'
p418
F0.44785294654876318
sS'pr40 INTERACT_spo'
p419
F0.39393914048820466
sS'r20 p_o'
p420
F0.36046511543971954
sS'rpr50 INTERACT_classes_min'
p421
F0.17525127167821025
sS'rpr10 w_ic_pmi'
p422
F0.20254950937966429
sS'rpr55 p_o'
p423
F0.33251294378288854
sS'pr80 TOT_CORR_spo'
p424
F0.46564883900332754
sS'rpr30 PMI_classes_max'
p425
F0.17525127167821025
sS'pr60 PMI_classes_min'
p426
F0.33333333333333331
sS'rpr10 INTERACT_classes_min'
p427
F0.17525127167821028
sS'r50 IC_pred'
p428
F0.41176481964984113
sS'pr95 TOT_CORR_classes_max'
p429
F0.49159791805383923
sS'r75 TOT_CORR_classes_max'
p430
F0.45679042131329561
sS'rpr70 TOT_CORR_classes_min'
p431
F0.37302036926055232
sS'pr20 p_o'
p432
F0.36046511543971954
sS'r90 PMI_classes_max'
p433
F0.33333333333333331
sS'pr60 TOT_CORR_spo'
p434
F0.42982468648959993
sS'rpr75 no_w'
p435
F0.38594287564963675
sS'rpr65 PMI_classes_min'
p436
F0.17525127167821025
sS'rpr55 w_join'
p437
F0.33251294378288854
sS'pr40 w_ic_pmi'
p438
F0.39393914048820466
sS'rpr60 PMI_classes_min'
p439
F0.17525127167821025
sS'pr95 PMI_pred_obj'
p440
F0.4915979180538394
sS'r65 TOT_CORR_spo'
p441
F0.43885660335081089
sS'r75 p_o'
p442
F0.45679042131329561
sS'pr10 TOT_CORR_classes_min'
p443
F0.34579441700960217
sS'rpr30 w_comb'
p444
F0.26060117752510581
sS'rpr95 INTERACT_spo'
p445
F0.43451654139079687
sS'rpr85 p_o'
p446
F0.41086065843846287
sS'rpr80 PMI_pred_obj'
p447
F0.39855867033531434
sS'r70 TOT_CORR_spo'
p448
F0.44785294654876318
sS'pr65 INTERACT_classes_max'
p449
F0.33333333333333331
sS'rpr65 w_join'
p450
F0.35979805548172816
sS'rpr30 w_join'
p451
F0.26060117752510581
sS'rpr90 IC_obj'
p452
F0.42284635768523915
sS'pr95 TOT_CORR_spo'
p453
F0.4915979180538394
sS'pr65 no_w'
p454
F0.43885660335081089
sS'rpr85 TOT_CORR_classes_min'
p455
F0.41086065843846287
sS'r65 INTERACT_spo'
p456
F0.43885660335081089
sS'rpr10 PMI_pred_obj'
p457
F0.20254950937966429
sS'r75 w_ic_pmi'
p458
F0.45679042131329561
sS'pr60 p_o'
p459
F0.42982468648959993
sS'rpr85 PMI_classes_min'
p460
F0.17525127167821025
sS'rpr30 PMI_pred_obj'
p461
F0.26060117752510581
sS'pr20 w_ic_pmi'
p462
F0.36046511543971954
sS'pr80 PMI_pred_obj'
p463
F0.46564883900332754
sS'r40 PMI_classes_min'
p464
F0.33333333333333331
sS'rpr30 IC_pred'
p465
F0.26060117752510581
sS'r85 w_comb'
p466
F0.47441161634059764
sS'r65 INTERACT_classes_max'
p467
F0.33333333333333331
sS'r60 PMI_classes_min'
p468
F0.33333333333333331
sS'r10 w_join'
p469
F0.34579441700960217
sS'pr85 w_comb'
p470
F0.47441161634059764
sS'rpr50 no_w'
p471
F0.31848975381575517
sS'r90 INTERACT_classes_max'
p472
F0.33333333333333331
sS'r55 w_join'
p473
F0.42078398819389246
sS'pr55 INTERACT_classes_max'
p474
F0.33333333333333331
sS'r80 no_w'
p475
F0.46564883900332754
sS'r80 IC_pred'
p476
F0.46564883900332754
sS'rpr85 w_comb'
p477
F0.41086065843846292
sS'pr60 w_ic_pmi'
p478
F0.42982468648959993
sS'pr85 w_join'
p479
F0.47441161634059764
sS'r50 INTERACT_spo'
p480
F0.41176481964984113
sS'r75 PMI_classes_min'
p481
F0.33333333333333331
sS'rpr95 w_ic_pmi'
p482
F0.43451654139079671
sS'rpr65 w_comb'
p483
F0.35979805548172827
sS'rpr50 TOT_CORR_classes_min'
p484
F0.31848975381575506
sS'rpr10 IC_obj'
p485
F0.20254950937966429
sS'rpr90 PMI_pred_obj'
p486
F0.42284635768523915
sS'rpr80 PMI_classes_min'
p487
F0.17525127167821025
sS'pr65 INTERACT_spo'
p488
F0.43885660335081089
sS'rpr90 p_o'
p489
F0.42284635768523909
sS'pr10 TOT_CORR_spo'
p490
F0.34579441700960217
sS'rpr55 PMI_classes_max'
p491
F0.17525127167821025
sS'r65 TOT_CORR_classes_min'
p492
F0.43885660335081084
sS'r30 INTERACT_classes_min'
p493
F0.33333333333333331
sS'r95 TOT_CORR_classes_min'
p494
F0.49159791805383923
sS'r60 w_join'
p495
F0.42982468648959993
sS'r55 TOT_CORR_classes_min'
p496
F0.42078398819389246
sS'rpr70 w_ic_pmi'
p497
F0.37302036926055232
sS'pr70 TOT_CORR_spo'
p498
F0.44785294654876318
sS'pr95 IC_obj'
p499
F0.4915979180538394
sS'pr10 TOT_CORR_classes_max'
p500
F0.34579441700960217
sS'rpr10 PMI_classes_min'
p501
F0.17525127167821028
sS'r55 w_comb'
p502
F0.42078398819389246
sS'r80 w_comb'
p503
F0.46564883900332754
sS'pr60 no_w'
p504
F0.42982468648959993
sS'r75 INTERACT_classes_min'
p505
F0.33333333333333331
sS'pr10 PMI_classes_max'
p506
F0.33333333333333331
sS'pr10 IC_pred'
p507
F0.34579441700960217
sS'r60 IC_pred'
p508
F0.42982468648959993
sS'r70 w_comb'
p509
F0.44785294654876318
sS'pr90 INTERACT_spo'
p510
F0.48306577213107421
sS'r95 TOT_CORR_spo'
p511
F0.4915979180538394
sS'rpr40 TOT_CORR_classes_max'
p512
F0.28982102778571306
sS'pr40 PMI_pred_obj'
p513
F0.39393914048820466
sS'pr40 TOT_CORR_classes_max'
p514
F0.39393914048820466
sS'r30 PMI_classes_max'
p515
F0.33333333333333331
sS'rpr30 INTERACT_classes_max'
p516
F0.17525127167821025
sS'r60 PMI_pred_obj'
p517
F0.42982468648959993
sS'r30 TOT_CORR_classes_min'
p518
F0.37669383999999995
sS'pr75 INTERACT_spo'
p519
F0.45679042131329561
sS'rpr10 p_o'
p520
F0.20254950937966429
sS'rpr30 no_w'
p521
F0.26060117752510581
sS'r20 PMI_classes_max'
p522
F0.33333333333333331
sS'pr20 TOT_CORR_classes_max'
p523
F0.36046511543971954
sS'pr20 IC_pred'
p524
F0.36046511543971954
sS'r50 p_o'
p525
F0.41176481964984113
sS'rpr10 no_w'
p526
F0.20254950937966429
sS'pr20 INTERACT_classes_min'
p527
F0.33333333333333331
sS'rpr60 INTERACT_classes_min'
p528
F0.17525127167821025
sS'r95 INTERACT_spo'
p529
F0.4915979180538394
sS'r65 IC_pred'
p530
F0.43885660335081089
sS'rpr75 IC_obj'
p531
F0.38594287564963675
sS'r80 INTERACT_spo'
p532
F0.46564883900332754
sS'r85 INTERACT_classes_max'
p533
F0.33333333333333331
sS'rpr40 IC_pred'
p534
F0.28982102778571306
sS'r95 w_join'
p535
F0.49159791805383923
sS'rpr40 IC_obj'
p536
F0.28982102778571306
sS'pr30 INTERACT_spo'
p537
F0.37669383999999995
sS'r85 TOT_CORR_spo'
p538
F0.47441161634059764
sS'pr30 w_ic_pmi'
p539
F0.37669383999999995
sS'rpr70 TOT_CORR_spo'
p540
F0.37302036926055238
sS'rpr70 INTERACT_classes_min'
p541
F0.17525127167821025
sS'pr95 w_ic_pmi'
p542
F0.49159791805383923
sS'r60 w_comb'
p543
F0.42982468648959993
sS'rpr50 p_o'
p544
F0.31848975381575506
sS'pr55 IC_pred'
p545
F0.42078398819389246
sS'pr70 IC_obj'
p546
F0.44785294654876318
sS'rpr40 w_join'
p547
F0.28982102778571306
sS'r30 IC_obj'
p548
F0.37669383999999995
sS'rpr55 INTERACT_classes_min'
p549
F0.17525127167821025
sS'r40 PMI_pred_obj'
p550
F0.39393914048820466
sS'rpr85 INTERACT_classes_max'
p551
F0.17525127167821025
sS'pr50 TOT_CORR_spo'
p552
F0.41176481964984113
sS'rpr20 TOT_CORR_classes_min'
p553
F0.23129324868038284
sS'r55 no_w'
p554
F0.42078398819389246
sS'pr75 INTERACT_classes_max'
p555
F0.33333333333333331
sS'rpr65 TOT_CORR_spo'
p556
F0.35979805548172827
sS'pr65 TOT_CORR_spo'
p557
F0.43885660335081089
sS'pr30 w_comb'
p558
F0.37669383999999995
sS'rpr80 TOT_CORR_classes_min'
p559
F0.39855867033531434
sS'r20 TOT_CORR_classes_max'
p560
F0.36046511543971954
sS'rpr10 TOT_CORR_classes_min'
p561
F0.20254950937966429
sS'rpr50 INTERACT_classes_max'
p562
F0.17525127167821025
sS'pr65 w_ic_pmi'
p563
F0.43885660335081084
sS'r10 TOT_CORR_classes_min'
p564
F0.34579441700960217
sS'pr85 INTERACT_spo'
p565
F0.47441161634059764
sS'rpr85 PMI_pred_obj'
p566
F0.41086065843846292
sS'rpr80 IC_pred'
p567
F0.39855867033531434
sS'rpr75 TOT_CORR_classes_min'
p568
F0.38594287564963675
sS'rpr80 INTERACT_classes_max'
p569
F0.17525127167821025
sS'pr70 INTERACT_spo'
p570
F0.44785294654876318
sS'r85 TOT_CORR_classes_max'
p571
F0.47441161634059764
sS'r40 TOT_CORR_classes_max'
p572
F0.39393914048820466
sS'r65 p_o'
p573
F0.43885660335081084
sS'pr95 TOT_CORR_classes_min'
p574
F0.49159791805383923
sS'rpr20 INTERACT_classes_min'
p575
F0.17525127167821025
sS'rpr80 w_join'
p576
F0.39855867033531434
sS'r50 TOT_CORR_spo'
p577
F0.41176481964984113
sS'rpr90 IC_pred'
p578
F0.42284635768523915
sS'r20 PMI_pred_obj'
p579
F0.36046511543971954
sS'pr65 IC_obj'
p580
F0.43885660335081089
sS'pr30 TOT_CORR_spo'
p581
F0.37669383999999995
sS'pr30 PMI_classes_min'
p582
F0.33333333333333331
sS'pr70 PMI_classes_max'
p583
F0.33333333333333331
sS'rpr95 PMI_pred_obj'
p584
F0.43451654139079687
sS'pr70 w_ic_pmi'
p585
F0.44785294654876318
sS'pr30 INTERACT_classes_min'
p586
F0.33333333333333331
sS'pr85 IC_obj'
p587
F0.47441161634059764
sS'pr55 p_o'
p588
F0.42078398819389246
sS'rpr40 PMI_classes_max'
p589
F0.17525127167821025
sS'r50 PMI_classes_min'
p590
F0.33333333333333331
sS'r80 PMI_classes_min'
p591
F0.33333333333333331
sS'r95 IC_pred'
p592
F0.4915979180538394
sS'rpr65 w_ic_pmi'
p593
F0.35979805548172816
sS'rpr60 TOT_CORR_spo'
p594
F0.34629031957776524
sS'rpr90 INTERACT_spo'
p595
F0.42284635768523915
sS'rpr60 PMI_classes_max'
p596
F0.17525127167821025
sS'rpr65 TOT_CORR_classes_min'
p597
F0.35979805548172816
sS'pr70 INTERACT_classes_min'
p598
F0.33333333333333331
sS'pr50 TOT_CORR_classes_max'
p599
F0.41176481964984113
sS'r65 INTERACT_classes_min'
p600
F0.33333333333333331
sS'r50 INTERACT_classes_max'
p601
F0.33333333333333331
sS'r70 INTERACT_classes_max'
p602
F0.33333333333333331
sS'pr75 w_join'
p603
F0.45679042131329561
sS'rpr30 TOT_CORR_classes_max'
p604
F0.26060117752510581
sS'rpr85 PMI_classes_max'
p605
F0.17525127167821025
sS'r90 w_ic_pmi'
p606
F0.4830657721310741
sS'rpr90 w_join'
p607
F0.42284635768523909
sS'pr80 INTERACT_spo'
p608
F0.46564883900332754
sS'r80 w_join'
p609
F0.46564883900332754
sS'rpr40 TOT_CORR_spo'
p610
F0.28982102778571306
sS'rpr10 TOT_CORR_classes_max'
p611
F0.20254950937966429
sS'rpr55 no_w'
p612
F0.33251294378288854
sS'rpr30 IC_obj'
p613
F0.26060117752510581
sS'r40 PMI_classes_max'
p614
F0.33333333333333331
sS'r95 w_comb'
p615
F0.4915979180538394
sS'rpr55 TOT_CORR_classes_max'
p616
F0.33251294378288854
sS'pr75 TOT_CORR_classes_min'
p617
F0.45679042131329561
sS'pr85 TOT_CORR_classes_min'
p618
F0.47441161634059764
sS'rpr95 PMI_classes_max'
p619
F0.17525127167821025
sS'r95 IC_obj'
p620
F0.4915979180538394
sS'pr30 IC_pred'
p621
F0.37669383999999995
sS'r50 TOT_CORR_classes_min'
p622
F0.41176481964984113
sS'r30 TOT_CORR_spo'
p623
F0.37669383999999995
sS'rpr10 TOT_CORR_spo'
p624
F0.20254950937966429
sS'rpr95 TOT_CORR_classes_max'
p625
F0.43451654139079671
sS'r60 TOT_CORR_classes_min'
p626
F0.42982468648959993
sS'r55 TOT_CORR_spo'
p627
F0.42078398819389246
sS'rpr55 IC_pred'
p628
F0.33251294378288854
sS'pr80 PMI_classes_max'
p629
F0.33333333333333331
sS'rpr85 TOT_CORR_classes_max'
p630
F0.41086065843846287
sS'pr10 INTERACT_classes_min'
p631
F0.33333333333333331
sS'pr90 PMI_classes_min'
p632
F0.33333333333333331
sS'rpr40 no_w'
p633
F0.28982102778571306
sS'in_degree'
p634
L1L
sS'rpr80 IC_obj'
p635
F0.39855867033531434
sS'r75 PMI_classes_max'
p636
F0.33333333333333331
sS'r70 IC_pred'
p637
F0.44785294654876318
sS'rpr95 p_o'
p638
F0.43451654139079671
sS'rpr40 w_comb'
p639
F0.28982102778571306
sS'pr85 INTERACT_classes_min'
p640
F0.33333333333333331
sS'pr30 IC_obj'
p641
F0.37669383999999995
sS'rpr75 w_comb'
p642
F0.38594287564963675
sS'out_degree'
p643
L0L
sS'rpr40 p_o'
p644
F0.28982102778571306
sS'pr20 TOT_CORR_spo'
p645
F0.36046511543971954
sS'pr95 w_comb'
p646
F0.4915979180538394
sS'rpr95 INTERACT_classes_max'
p647
F0.17525127167821025
sS'r30 INTERACT_classes_max'
p648
F0.33333333333333331
sS'pr50 INTERACT_classes_max'
p649
F0.33333333333333331
sS'r40 INTERACT_classes_min'
p650
F0.33333333333333331
sS'rpr50 TOT_CORR_spo'
p651
F0.31848975381575517
sS'rpr40 w_ic_pmi'
p652
F0.28982102778571306
sS'pr85 TOT_CORR_spo'
p653
F0.47441161634059764
sS'pr10 PMI_classes_min'
p654
F0.33333333333333331
sS'r60 INTERACT_classes_max'
p655
F0.33333333333333331
sS'rpr80 TOT_CORR_classes_max'
p656
F0.39855867033531434
sS'pr20 PMI_classes_max'
p657
F0.33333333333333331
sS'rpr60 w_ic_pmi'
p658
F0.34629031957776518
sS'rpr80 p_o'
p659
F0.39855867033531434
sS'r55 TOT_CORR_classes_max'
p660
F0.42078398819389246
sS'rpr80 INTERACT_spo'
p661
F0.39855867033531434
sS'r60 TOT_CORR_spo'
p662
F0.42982468648959993
sS'rpr10 IC_pred'
p663
F0.20254950937966429
sS'pr50 w_join'
p664
F0.41176481964984113
sS'rpr70 w_comb'
p665
F0.37302036926055238
sS'rpr50 INTERACT_spo'
p666
F0.31848975381575517
sS'rpr20 IC_pred'
p667
F0.23129324868038284
sS'pr65 PMI_pred_obj'
p668
F0.43885660335081089
sS'rpr95 IC_obj'
p669
F0.43451654139079687
sS'pr65 w_comb'
p670
F0.43885660335081089
sS'r75 INTERACT_classes_max'
p671
F0.33333333333333331
sS'rpr30 INTERACT_classes_min'
p672
F0.17525127167821025
sS'r60 IC_obj'
p673
F0.42982468648959993
sS'pr65 PMI_classes_max'
p674
F0.33333333333333331
sS'r95 PMI_classes_min'
p675
F0.33333333333333331
sS'pr60 INTERACT_classes_max'
p676
F0.33333333333333331
sS'pr65 INTERACT_classes_min'
p677
F0.33333333333333331
sS'r55 PMI_pred_obj'
p678
F0.42078398819389246
sS'starting'
p679
I01
sS'r30 TOT_CORR_classes_max'
p680
F0.37669383999999995
sa(dp681
g3
F0.41407947387367261
sg4
F0.41407947387367261
sg5
F0.40290953407585373
sg6
F0.33333333333333331
sg7
F0.34764782260041205
sg8
F0.41492705053563173
sg9
F0.33333333333333331
sg10
F0.34567890913846583
sg11
F0.41407947387367261
sg12
F0.34267910836762688
sg13
F0.33333333333333331
sg14
F0.34764782260041205
sg15
F0.35353548510396449
sg16
F0.35230344999999996
sg17
F0.40290953407585373
sg18
F0.38853650236681159
sg19
F0.33333333333333331
sg20
F0.39962859374170245
sg21
F0.34117162035263782
sg22
F0.33333333333333331
sg23
F0.33333333333333331
sg24
F0.34567890913846577
sg25
F0.41492705053563173
sg26
F0.33333333333333331
sg27
F0.37625381871592628
sg28
F0.34351123030801139
sg29
F0.33333333333333331
sg30
F0.34267910836762688
sg31
F0.33606275529516216
sg32
F0.40290953407585373
sg33
F0.34764782260041205
sg34
F0.34764782260041205
sg35
F0.35207221767975838
sg36
F0.39240525473739746
sg37
F0.37625381871592634
sg38
F0.40669723880907188
sg39
F0.35207221767975838
sg40
F0.34883721969212012
sg41
F0.40591181536252857
sg42
F0.40669723880907188
sg43
F0.34764782260041205
sg44
F0.35087718645759991
sg45
F0.35294102368166214
sg46
F0.34883721969212012
sg47
F0.33333333333333331
sg48
F0.33868080158869679
sg49
F0.34567890913846583
sg50
F0.40669723880907194
sg51
F0.34939106349793353
sg52
F0.40669723880907194
sg53
F0.40591181536252863
sg54
F0.34267910836762688
sg55
F0.35230344999999996
sg56
F0.41088412753810793
sg57
F0.34883721969212012
sg58
F0.40290953407585373
sg59
F0.34567890913846583
sg60
F0.33333333333333331
sg61
F0.38453663264791849
sg62
F0.33606275529516216
sg63
F0.33333333333333331
sg64
F0.37201321547857391
sg65
F0.33333333333333331
sg66
F0.35294102368166214
sg67
F0.34117162035263776
sg68
F0.35230344999999996
sg69
F0.37625381871592634
sg70
F0.33868080158869673
sg71
F0.34939106349793347
sg72
F0.34267910836762688
sg73
F0.35353548510396443
sg74
F0.336062755295162
sg75
F0.33606275529516216
sg76
F0.35207221767975838
sg77
F0.35207221767975838
sg78
F0.34764782260041205
sg79
F0.39962859374170245
sg80
F0.37625381871592634
sg81
F0.33333333333333331
sg82
F0.33868080158869673
sg83
F0.33333333333333331
sg84
F0.34567890913846583
sg85
F0.34267910836762688
sg86
F0.35294102368166214
sg87
F0.39962859374170245
sg88
F0.34567890913846583
sg89
F0.33333333333333331
sg90
F0.41273653569606999
sg91
F0.35087718645760002
sg92
F0.35230344999999996
sg93
F0.35087718645759991
sg94
F0.35087718645760002
sg95
F0.33333333333333331
sg96
F0.41407947387367261
sg97
F0.33333333333333331
sg98
F0.34567890913846583
sg99
F0.33333333333333331
sg100
F0.40669723880907188
sg101
F0.34351123030801139
sg102
F0.33868080158869673
sg103
F0.34351123030801139
sg104
F0.35087718645759991
sg105
F0.35353548510396443
sg106
F0.34883721969212012
sg107
F0.35087718645759991
sg108
F0.33333333333333331
sg109
F0.40591181536252863
sg110
F0.35230344999999996
sg111
F0.34117162035263776
sg112
F0.35087718645760002
sg113
F0.34567890913846577
sg114
F0.33333333333333331
sg115
F0.34567890913846577
sg116
F0.33868080158869679
sg117
F0.33333333333333331
sg118
F0.37201321547857402
sg119
F0.35294102368166214
sg120
F0.33333333333333331
sg121
F0.35294102368166214
sg122
F0.33333333333333331
sg123
F0.35230344999999996
sg124
F0.34567890913846583
sg125
F0.40669723880907194
sg126
F0.38853650236681153
sg127
F0.40669723880907188
sg128
F0.35207221767975838
sg129
F0.33606275529516216
sg130
F0.34267910836762688
sg131
F0.35294102368166214
sg132
F0.40669723880907188
sg133
F0.336062755295162
sg134
F0.41492705053563173
sg135
F0.34117162035263782
sg136
F0.34883721969212012
sg137
F0.34267910836762688
sg138
F0.34764782260041205
sg139
F0.37625381871592628
sg140
F0.39240525473739746
sg141
F0.34267910836762688
sg142
F0.35087718645759991
sg143
F0.39240525473739746
sg144
F0.33333333333333331
sg145
F0.35294102368166214
sg146
F0.33333333333333331
sg147
F0.33868080158869679
sg148
F0.35294102368166214
sg149
F0.33333333333333331
sg150
F0.35230344999999996
sg151
F0.34351123030801139
sg152
F0.38043468247631579
sg153
F0.34939106349793347
sg154
F0.336062755295162
sg155
F0.33333333333333331
sg156
F0.34267910836762688
sg157
F0.336062755295162
sg158
F0.33333333333333331
sg159
F0.33333333333333331
sg160
F0.41492705053563173
sg161
F0.40669723880907188
sg162
F0.33333333333333331
sg163
F0.35353548510396449
sg164
F0.34567890913846583
sg165
F0.35207221767975838
sg166
F0.41088412753810793
sg167
F0.33333333333333331
sg168
F0.35230344999999996
sg169
F0.37201321547857402
sg170
F0.34117162035263776
sg171
F0.34567890913846583
sg172
F0.33868080158869673
sg173
F0.34351123030801139
sg174
F0.3924052547373974
sg175
F0.33333333333333331
sg176
F0.34883721969212012
sg177
F0.34351123030801139
sg178
F0.35353548510396443
sg179
F0.39962859374170245
sg180
F0.35207221767975838
sg181
F0.33333333333333331
sg182
F0.40669723880907188
sg183
F0.33868080158869679
sg184
F0.35353548510396449
sg185
F0.35230344999999996
sg186
F0.40591181536252857
sg187
F0.35294102368166214
sg188
F0.34117162035263776
sg189
F0.39240525473739746
sg190
F0.40290953407585373
sg191
F0.35230344999999996
sg192
F0.38043468247631579
sg193
L411L
sg194
F0.33333333333333331
sg195
F0.34117162035263782
sg196
F0.34883721969212012
sg197
F0.34117162035263782
sg198
F0.40669723880907188
sg199
F0.33333333333333331
sg200
F0.41492705053563173
sg201
F0.35230344999999996
sg202
F0.40669723880907188
sg203
F0.33333333333333331
sg204
F0.34117162035263782
sg205
F0.38853650236681159
sg206
F0.35207221767975838
sg207
F0.38043468247631579
sg208
F0.35230344999999996
sg209
F0.33868080158869679
sg210
F0.41492705053563173
sg211
F0.41492705053563173
sg212
F0.33868080158869673
sg213
F0.40669723880907183
sg214
F0.38853650236681159
sg215
F0.33333333333333331
sg216
F0.35207221767975838
sg217
F0.34939106349793347
sg218
F0.40669723880907188
sg219
F0.40669723880907183
sg220
F0.38453663264791849
sg221
F0.35294102368166214
sg222
F0.38853650236681153
sg223
F0.33333333333333331
sg224
F0.33868080158869673
sg225
F0.33333333333333331
sg226
F0.40669723880907188
sg227
F0.34764782260041205
sg228
F0.34939106349793347
sg229
F0.33333333333333331
sg230
F0.3996285937417024
sg231
F0.40669723880907194
sg232
F0.39611480260320159
sg233
F0.33868080158869673
sg234
F0.40591181536252863
sg235
F0.34883721969212012
sg236
F0.33333333333333331
sg237
F0.33868080158869679
sg238
F0.33333333333333331
sg239
F0.35353548510396449
sg240
F0.34117162035263776
sg241
F0.35207221767975838
sg242
F0.3996285937417024
sg243
F0.41492705053563173
sg244
F0.34117162035263782
sg245
F0.40669723880907188
sg246
F0.34351123030801139
sg247
F0.35353548510396449
sg248
F0.40591181536252863
sg249
F0.38853650236681159
sg250
F0.33868080158869679
sg251
F0.35207221767975838
sg252
F0.34883721969212012
sg253
F0.34764782260041205
sg254
F0.34567890913846577
sg255
F0.35353548510396449
sg256
F0.34267910836762688
sg257
F0.38043468247631579
sg258
F0.34764782260041205
sg259
F0.34267910836762688
sg260
F0.34117162035263776
sg261
F0.33333333333333331
sg262
F0.33333333333333331
sg263
F0.40290953407585373
sg264
F0.40669723880907188
sg265
F0.39611480260320159
sg266
F0.33333333333333331
sg267
F0.34351123030801139
sg268
F0.35294102368166214
sg269
F0.34764782260041205
sg270
F0.33333333333333331
sg271
F0.38453663264791849
sg272
F0.39240525473739746
sg273
F0.33333333333333331
sg274
F0.33333333333333331
sg275
F0.3924052547373974
sg276
F0.41492705053563173
sg277
F0.35353548510396443
sg278
F0.41088412753810788
sg279
F0.33333333333333331
sg280
F0.33868080158869679
sg281
F0.35087718645760002
sg282
F0.34351123030801139
sg283
F0.34351123030801139
sg284
F0.33333333333333331
sg285
F0.34764782260041205
sg286
F0.33333333333333331
sg287
F0.34883721969212012
sg288
F0.39611480260320159
sg289
F0.34351123030801139
sg290
F0.34567890913846577
sg291
F0.33333333333333331
sg292
F0.35294102368166214
sg293
F0.34939106349793353
sg294
F0.40669723880907188
sg295
F0.35353548510396449
sg296
F0.40669723880907188
sg297
F0.35230344999999996
sg298
F0.34764782260041205
sg299
F0.37201321547857402
sg300
F0.33333333333333331
sg301
F0.40290953407585373
sg302
F0.33333333333333331
sg303
F0.34351123030801139
sg304
F0.35294102368166214
sg305
F0.35353548510396443
sg306
F0.37201321547857402
sg307
F0.33333333333333331
sg308
F0.35294102368166214
sg309
F0.34351123030801139
sg310
F0.37201321547857391
sg311
F0.34764782260041205
sg312
F0.35087718645760002
sg313
F0.33333333333333331
sg314
F0.34567890913846583
sg315
F0.3996285937417024
sg316
F0.34351123030801139
sg317
F0.34883721969212012
sg318
F0.40669723880907188
sg319
F0.34939106349793347
sg320
F0.40669723880907188
sg321
F0.35353548510396449
sg322
F0.34939106349793347
sg323
F0.35230344999999996
sg324
F0.35294102368166214
sg325
F0.33333333333333331
sg326
F0.33333333333333331
sg327
F0.40591181536252857
sg328
F0.35207221767975838
sg329
F0.33868080158869679
sg330
F0.33333333333333331
sg331
F0.33333333333333331
sg332
F0.33333333333333331
sg333
F0.40669723880907188
sg334
F0.35353548510396443
sg335
F0.34939106349793353
sg336
F0.35207221767975838
sg337
F0.336062755295162
sg338
F0.33333333333333331
sg339
F0.39962859374170245
sg340
F0.40669723880907188
sg341
F0.33333333333333331
sg342
F0.33868080158869673
sg343
F0.34267910836762688
sg344
F0.34764782260041205
sg345
F0.34939106349793347
sg346
F0.34117162035263782
sg347
F0.34267910836762688
sg348
F0.35353548510396443
sg349
F0.33868080158869679
sg350
F0.37625381871592628
sg351
F0.35353548510396449
sg352
F0.39611480260320159
sg353
F0.34567890913846583
sg354
F0.38853650236681153
sg355
F0.33868080158869673
sg356
F0.41273653569606994
sg357
F0.3924052547373974
sg358
F0.33333333333333331
sg359
F0.34117162035263782
sg360
F0.40669723880907188
sg361
F0.33333333333333331
sg362
F0.38043468247631568
sg363
F0.39611480260320159
sg364
F0.34883721969212012
sg365
F0.34351123030801139
sg366
F0.34267910836762688
sg367
F0.35353548510396449
sg368
F0.34883721969212012
sg369
F0.34267910836762688
sg370
F0.33333333333333331
sg371
F0.34567890913846583
sg372
F0.39611480260320159
sg373
F0.40669723880907188
sg374
F0.33868080158869679
sg375
F0.33333333333333331
sg376
F0.40669723880907183
sg377
F0.38853650236681153
sg378
F0.41407947387367261
sg379
F0.35087718645760002
sg380
F0.34764782260041205
sg381
F0.33333333333333331
sg382
F0.33868080158869679
sg383
F0.34939106349793353
sg384
F0.39962859374170245
sg385
F0.33333333333333331
sg386
F0.38453663264791849
sg387
F0.34883721969212012
sg388
F0.34351123030801139
sg389
F0.40669723880907183
sg390
F0.41492705053563173
sg391
F0.34267910836762688
sg392
F0.38043468247631568
sg393
F0.41273653569606999
sg394
F0.35087718645759991
sg395
F0.35087718645760002
sg396
F0.35294102368166214
sg397
F0.35207221767975838
sg398
F0.40669723880907188
sg399
F0.40669723880907188
sg400
F0.40669723880907194
sg401
F0.33868080158869679
sg402
F0.34883721969212012
sg403
F0.34939106349793353
sg404
F0.34567890913846583
sg405
F0.34883721969212012
sg406
F0.33606275529516216
sg407
F0.34267910836762688
sg408
F0.39611480260320159
sg409
F0.34117162035263776
sg410
F0.40669723880907188
sg411
F0.33333333333333331
sg412
F0.38043468247631579
sg413
L2L
sg414
F0.35353548510396449
sg415
F0.35207221767975838
sg416
F0.3996285937417024
sg417
F0.34267910836762688
sg418
F0.34764782260041205
sg419
F0.35353548510396449
sg420
F0.34883721969212012
sg421
F0.40669723880907188
sg422
F0.41273653569606994
sg423
F0.40290953407585373
sg424
F0.34351123030801139
sg425
F0.40669723880907188
sg426
F0.33333333333333331
sg427
F0.40669723880907188
sg428
F0.35294102368166214
sg429
F0.336062755295162
sg430
F0.34567890913846577
sg431
F0.3924052547373974
sg432
F0.34883721969212012
sg433
F0.33333333333333331
sg434
F0.35087718645760002
sg435
F0.38853650236681159
sg436
F0.40669723880907188
sg437
F0.40290953407585373
sg438
F0.35353548510396443
sg439
F0.40669723880907188
sg440
F0.33606275529516216
sg441
F0.34939106349793353
sg442
F0.34567890913846577
sg443
F0.34267910836762688
sg444
F0.41407947387367261
sg445
F0.37201321547857402
sg446
F0.38043468247631568
sg447
F0.38453663264791849
sg448
F0.34764782260041205
sg449
F0.33333333333333331
sg450
F0.39611480260320159
sg451
F0.41407947387367261
sg452
F0.37625381871592634
sg453
F0.33606275529516216
sg454
F0.34939106349793353
sg455
F0.38043468247631568
sg456
F0.34939106349793353
sg457
F0.41273653569606999
sg458
F0.34567890913846577
sg459
F0.35087718645759991
sg460
F0.40669723880907188
sg461
F0.41407947387367261
sg462
F0.34883721969212012
sg463
F0.34351123030801139
sg464
F0.33333333333333331
sg465
F0.41407947387367261
sg466
F0.34117162035263782
sg467
F0.33333333333333331
sg468
F0.33333333333333331
sg469
F0.34267910836762688
sg470
F0.34117162035263782
sg471
F0.40591181536252863
sg472
F0.33333333333333331
sg473
F0.35207221767975838
sg474
F0.33333333333333331
sg475
F0.34351123030801139
sg476
F0.34351123030801139
sg477
F0.38043468247631579
sg478
F0.35087718645759991
sg479
F0.34117162035263776
sg480
F0.35294102368166214
sg481
F0.33333333333333331
sg482
F0.37201321547857391
sg483
F0.39611480260320159
sg484
F0.40591181536252857
sg485
F0.41273653569606999
sg486
F0.37625381871592634
sg487
F0.40669723880907188
sg488
F0.34939106349793353
sg489
F0.37625381871592628
sg490
F0.34267910836762688
sg491
F0.40669723880907188
sg492
F0.34939106349793347
sg493
F0.33333333333333331
sg494
F0.336062755295162
sg495
F0.35087718645759991
sg496
F0.35207221767975838
sg497
F0.3924052547373974
sg498
F0.34764782260041205
sg499
F0.33606275529516216
sg500
F0.34267910836762688
sg501
F0.40669723880907188
sg502
F0.35207221767975838
sg503
F0.34351123030801139
sg504
F0.35087718645760002
sg505
F0.33333333333333331
sg506
F0.33333333333333331
sg507
F0.34267910836762688
sg508
F0.35087718645760002
sg509
F0.34764782260041205
sg510
F0.33868080158869679
sg511
F0.33606275529516216
sg512
F0.41088412753810788
sg513
F0.35353548510396449
sg514
F0.35353548510396443
sg515
F0.33333333333333331
sg516
F0.40669723880907188
sg517
F0.35087718645760002
sg518
F0.35230344999999996
sg519
F0.34567890913846583
sg520
F0.41273653569606994
sg521
F0.41407947387367261
sg522
F0.33333333333333331
sg523
F0.34883721969212012
sg524
F0.34883721969212012
sg525
F0.35294102368166214
sg526
F0.41273653569606999
sg527
F0.33333333333333331
sg528
F0.40669723880907188
sg529
F0.33606275529516216
sg530
F0.34939106349793353
sg531
F0.38853650236681159
sg532
F0.34351123030801139
sg533
F0.33333333333333331
sg534
F0.41088412753810793
sg535
F0.336062755295162
sg536
F0.41088412753810793
sg537
F0.35230344999999996
sg538
F0.34117162035263782
sg539
F0.35230344999999996
sg540
F0.39240525473739746
sg541
F0.40669723880907188
sg542
F0.336062755295162
sg543
F0.35087718645760002
sg544
F0.40591181536252857
sg545
F0.35207221767975838
sg546
F0.34764782260041205
sg547
F0.41088412753810788
sg548
F0.35230344999999996
sg549
F0.40669723880907188
sg550
F0.35353548510396449
sg551
F0.40669723880907188
sg552
F0.35294102368166214
sg553
F0.41492705053563173
sg554
F0.35207221767975838
sg555
F0.33333333333333331
sg556
F0.39611480260320159
sg557
F0.34939106349793353
sg558
F0.35230344999999996
sg559
F0.38453663264791849
sg560
F0.34883721969212012
sg561
F0.41273653569606994
sg562
F0.40669723880907188
sg563
F0.34939106349793347
sg564
F0.34267910836762688
sg565
F0.34117162035263782
sg566
F0.38043468247631579
sg567
F0.38453663264791849
sg568
F0.38853650236681153
sg569
F0.40669723880907188
sg570
F0.34764782260041205
sg571
F0.34117162035263776
sg572
F0.35353548510396443
sg573
F0.34939106349793347
sg574
F0.336062755295162
sg575
F0.40669723880907194
sg576
F0.38453663264791849
sg577
F0.35294102368166214
sg578
F0.37625381871592634
sg579
F0.34883721969212012
sg580
F0.34939106349793353
sg581
F0.35230344999999996
sg582
F0.33333333333333331
sg583
F0.33333333333333331
sg584
F0.37201321547857402
sg585
F0.34764782260041205
sg586
F0.33333333333333331
sg587
F0.34117162035263782
sg588
F0.35207221767975838
sg589
F0.40669723880907188
sg590
F0.33333333333333331
sg591
F0.33333333333333331
sg592
F0.33606275529516216
sg593
F0.39611480260320159
sg594
F0.39962859374170245
sg595
F0.37625381871592634
sg596
F0.40669723880907188
sg597
F0.39611480260320159
sg598
F0.33333333333333331
sg599
F0.35294102368166214
sg600
F0.33333333333333331
sg601
F0.33333333333333331
sg602
F0.33333333333333331
sg603
F0.34567890913846577
sg604
F0.41407947387367261
sg605
F0.40669723880907188
sg606
F0.33868080158869673
sg607
F0.37625381871592628
sg608
F0.34351123030801139
sg609
F0.34351123030801139
sg610
F0.41088412753810793
sg611
F0.41273653569606994
sg612
F0.40290953407585373
sg613
F0.41407947387367261
sg614
F0.33333333333333331
sg615
F0.33606275529516216
sg616
F0.40290953407585373
sg617
F0.34567890913846577
sg618
F0.34117162035263776
sg619
F0.40669723880907194
sg620
F0.33606275529516216
sg621
F0.35230344999999996
sg622
F0.35294102368166214
sg623
F0.35230344999999996
sg624
F0.41273653569606999
sg625
F0.37201321547857391
sg626
F0.35087718645759991
sg627
F0.35207221767975838
sg628
F0.40290953407585373
sg629
F0.33333333333333331
sg630
F0.38043468247631568
sg631
F0.33333333333333331
sg632
F0.33333333333333331
sg633
F0.41088412753810793
sg634
L1L
sg635
F0.38453663264791849
sg636
F0.33333333333333331
sg637
F0.34764782260041205
sg638
F0.37201321547857391
sg639
F0.41088412753810793
sg640
F0.33333333333333331
sg641
F0.35230344999999996
sg642
F0.38853650236681159
sg643
L1L
sg644
F0.41088412753810788
sg645
F0.34883721969212012
sg646
F0.33606275529516216
sg647
F0.40669723880907194
sg648
F0.33333333333333331
sg649
F0.33333333333333331
sg650
F0.33333333333333331
sg651
F0.40591181536252863
sg652
F0.41088412753810788
sg653
F0.34117162035263782
sg654
F0.33333333333333331
sg655
F0.33333333333333331
sg656
F0.38453663264791849
sg657
F0.33333333333333331
sg658
F0.3996285937417024
sg659
F0.38453663264791849
sg660
F0.35207221767975838
sg661
F0.38453663264791849
sg662
F0.35087718645760002
sg663
F0.41273653569606999
sg664
F0.35294102368166214
sg665
F0.39240525473739746
sg666
F0.40591181536252863
sg667
F0.41492705053563173
sg668
F0.34939106349793353
sg669
F0.37201321547857402
sg670
F0.34939106349793353
sg671
F0.33333333333333331
sg672
F0.40669723880907188
sg673
F0.35087718645760002
sg674
F0.33333333333333331
sg675
F0.33333333333333331
sg676
F0.33333333333333331
sg677
F0.33333333333333331
sg678
F0.35207221767975838
sg679
I01
sg680
F0.35230344999999996
sa(dp682
g3
F0.32531934860122141
sg4
F0.32531934860122141
sg5
F0.26457752214125774
sg6
F0.33333333333333331
sg7
F0.20449923085082455
sg8
F0.35377970078398546
sg9
F0.33333333333333331
sg10
F0.19753066954823828
sg11
F0.32531934860122141
sg12
F0.31152647462277089
sg13
F0.33333333333333331
sg14
F0.20449923085082455
sg15
F0.25252537440783074
sg16
F0.27100270999999998
sg17
F0.26457752214125774
sg18
F0.22552062198355149
sg19
F0.33333333333333331
sg20
F0.2540810866805322
sg21
F0.18441676330676421
sg22
F0.33333333333333331
sg23
F0.33333333333333331
sg24
F0.19753066954823828
sg25
F0.35377970078398546
sg26
F0.33333333333333331
sg27
F0.20089982359883404
sg28
F0.19083993068866079
sg29
F0.33333333333333331
sg30
F0.31152647462277089
sg31
F0.17233932665099769
sg32
F0.26457752214125774
sg33
F0.20449923085082455
sg34
F0.20449923085082455
sg35
F0.22714379412634897
sg36
F0.23457437600205011
sg37
F0.2008998235988341
sg38
F0.41805148951271781
sg39
F0.22714379412634897
sg40
F0.29069766486816034
sg41
F0.2755984308217162
sg42
F0.41805148951271781
sg43
F0.20449923085082455
sg44
F0.2192981270528
sg45
F0.23529415666849657
sg46
F0.29069766486816034
sg47
F0.33333333333333331
sg48
F0.17825342628022878
sg49
F0.19753066954823828
sg50
F0.41805148951271781
sg51
F0.21175233315125547
sg52
F0.41805148951271787
sg53
F0.2755984308217162
sg54
F0.31152647462277089
sg55
F0.27100270999999998
sg56
F0.29929484467617895
sg57
F0.29069766486816034
sg58
F0.26457752214125774
sg59
F0.19753066954823828
sg60
F0.33333333333333331
sg61
F0.21690469701676698
sg62
F0.17233932665099769
sg63
F0.33333333333333331
sg64
F0.19347024313062869
sg65
F0.33333333333333331
sg66
F0.23529415666849657
sg67
F0.18441676330676421
sg68
F0.27100270999999998
sg69
F0.2008998235988341
sg70
F0.17825342628022875
sg71
F0.21175233315125544
sg72
F0.31152647462277089
sg73
F0.25252537440783074
sg74
F0.17233932665099763
sg75
F0.17233932665099769
sg76
F0.22714379412634897
sg77
F0.22714379412634897
sg78
F0.20449923085082455
sg79
F0.2540810866805322
sg80
F0.2008998235988341
sg81
F0.33333333333333331
sg82
F0.17825342628022875
sg83
F0.33333333333333331
sg84
F0.19753066954823828
sg85
F0.31152647462277089
sg86
F0.23529415666849657
sg87
F0.2540810866805322
sg88
F0.19753066954823828
sg89
F0.33333333333333331
sg90
F0.38471395492426574
sg91
F0.2192981270528
sg92
F0.27100270999999998
sg93
F0.2192981270528
sg94
F0.2192981270528
sg95
F0.33333333333333331
sg96
F0.32531934860122141
sg97
F0.33333333333333331
sg98
F0.19753066954823828
sg99
F0.33333333333333331
sg100
F0.41805148951271781
sg101
F0.19083993068866079
sg102
F0.17825342628022875
sg103
F0.19083993068866079
sg104
F0.2192981270528
sg105
F0.25252537440783074
sg106
F0.29069766486816034
sg107
F0.2192981270528
sg108
F0.33333333333333331
sg109
F0.2755984308217162
sg110
F0.27100270999999998
sg111
F0.18441676330676421
sg112
F0.2192981270528
sg113
F0.19753066954823828
sg114
F0.33333333333333331
sg115
F0.19753066954823828
sg116
F0.17825342628022878
sg117
F0.33333333333333331
sg118
F0.19347024313062872
sg119
F0.23529415666849657
sg120
F0.33333333333333331
sg121
F0.23529415666849657
sg122
F0.33333333333333331
sg123
F0.27100270999999998
sg124
F0.19753066954823828
sg125
F0.41805148951271787
sg126
F0.22552062198355149
sg127
F0.41805148951271781
sg128
F0.22714379412634897
sg129
F0.17233932665099769
sg130
F0.31152647462277089
sg131
F0.23529415666849657
sg132
F0.41805148951271787
sg133
F0.17233932665099763
sg134
F0.35377970078398546
sg135
F0.18441676330676421
sg136
F0.29069766486816034
sg137
F0.31152647462277089
sg138
F0.20449923085082455
sg139
F0.20089982359883404
sg140
F0.23457437600205011
sg141
F0.31152647462277089
sg142
F0.2192981270528
sg143
F0.23457437600205011
sg144
F0.33333333333333331
sg145
F0.23529415666849657
sg146
F0.33333333333333331
sg147
F0.17825342628022878
sg148
F0.23529415666849657
sg149
F0.33333333333333331
sg150
F0.27100270999999998
sg151
F0.19083993068866079
sg152
F0.20870465908522123
sg153
F0.21175233315125544
sg154
F0.17233932665099763
sg155
F0.33333333333333331
sg156
F0.31152647462277089
sg157
F0.17233932665099763
sg158
F0.33333333333333331
sg159
F0.33333333333333331
sg160
F0.35377970078398546
sg161
F0.41805148951271781
sg162
F0.33333333333333331
sg163
F0.25252537440783074
sg164
F0.19753066954823828
sg165
F0.22714379412634897
sg166
F0.29929484467617895
sg167
F0.33333333333333331
sg168
F0.27100270999999998
sg169
F0.19347024313062872
sg170
F0.18441676330676421
sg171
F0.19753066954823828
sg172
F0.17825342628022875
sg173
F0.19083993068866079
sg174
F0.23457437600205011
sg175
F0.33333333333333331
sg176
F0.29069766486816034
sg177
F0.19083993068866079
sg178
F0.25252537440783074
sg179
F0.2540810866805322
sg180
F0.22714379412634897
sg181
F0.33333333333333331
sg182
F0.41805148951271787
sg183
F0.17825342628022878
sg184
F0.25252537440783074
sg185
F0.27100270999999998
sg186
F0.2755984308217162
sg187
F0.23529415666849657
sg188
F0.18441676330676421
sg189
F0.23457437600205011
sg190
F0.26457752214125774
sg191
F0.27100270999999998
sg192
F0.20870465908522123
sg193
L20916L
sg194
F0.33333333333333331
sg195
F0.18441676330676421
sg196
F0.29069766486816034
sg197
F0.18441676330676421
sg198
F0.41805148951271787
sg199
F0.33333333333333331
sg200
F0.35377970078398546
sg201
F0.27100270999999998
sg202
F0.41805148951271781
sg203
F0.33333333333333331
sg204
F0.18441676330676421
sg205
F0.22552062198355149
sg206
F0.22714379412634897
sg207
F0.20870465908522123
sg208
F0.27100270999999998
sg209
F0.17825342628022878
sg210
F0.35377970078398546
sg211
F0.35377970078398546
sg212
F0.17825342628022875
sg213
F0.41805148951271776
sg214
F0.22552062198355149
sg215
F0.33333333333333331
sg216
F0.22714379412634897
sg217
F0.21175233315125544
sg218
F0.41805148951271781
sg219
F0.41805148951271776
sg220
F0.21690469701676696
sg221
F0.23529415666849657
sg222
F0.22552062198355149
sg223
F0.33333333333333331
sg224
F0.17825342628022875
sg225
F0.33333333333333331
sg226
F0.41805148951271781
sg227
F0.20449923085082455
sg228
F0.21175233315125544
sg229
F0.33333333333333331
sg230
F0.2540810866805322
sg231
F0.41805148951271781
sg232
F0.24408714191507003
sg233
F0.17825342628022875
sg234
F0.2755984308217162
sg235
F0.29069766486816034
sg236
F0.33333333333333331
sg237
F0.17825342628022878
sg238
F0.33333333333333331
sg239
F0.25252537440783074
sg240
F0.18441676330676421
sg241
F0.22714379412634897
sg242
F0.2540810866805322
sg243
F0.35377970078398546
sg244
F0.18441676330676421
sg245
F0.41805148951271781
sg246
F0.19083993068866079
sg247
F0.25252537440783074
sg248
F0.2755984308217162
sg249
F0.22552062198355149
sg250
F0.17825342628022878
sg251
F0.22714379412634897
sg252
F0.29069766486816034
sg253
F0.20449923085082455
sg254
F0.19753066954823828
sg255
F0.25252537440783074
sg256
F0.31152647462277089
sg257
F0.20870465908522123
sg258
F0.20449923085082455
sg259
F0.31152647462277089
sg260
F0.18441676330676421
sg261
F0.33333333333333331
sg262
F0.33333333333333331
sg263
F0.26457752214125774
sg264
F0.41805148951271781
sg265
F0.24408714191507003
sg266
F0.33333333333333331
sg267
F0.19083993068866079
sg268
F0.23529415666849657
sg269
F0.20449923085082455
sg270
F0.33333333333333331
sg271
F0.21690469701676698
sg272
F0.23457437600205011
sg273
F0.33333333333333331
sg274
F0.33333333333333331
sg275
F0.23457437600205011
sg276
F0.35377970078398546
sg277
F0.25252537440783074
sg278
F0.29929484467617895
sg279
F0.33333333333333331
sg280
F0.17825342628022878
sg281
F0.2192981270528
sg282
F0.19083993068866079
sg283
F0.19083993068866079
sg284
F0.33333333333333331
sg285
F0.20449923085082455
sg286
F0.33333333333333331
sg287
F0.29069766486816034
sg288
F0.24408714191507003
sg289
F0.19083993068866079
sg290
F0.19753066954823828
sg291
F0.33333333333333331
sg292
F0.23529415666849657
sg293
F0.21175233315125547
sg294
F0.41805148951271781
sg295
F0.25252537440783074
sg296
F0.41805148951271787
sg297
F0.27100270999999998
sg298
F0.20449923085082455
sg299
F0.19347024313062872
sg300
F0.33333333333333331
sg301
F0.26457752214125774
sg302
F0.33333333333333331
sg303
F0.19083993068866079
sg304
F0.23529415666849657
sg305
F0.25252537440783074
sg306
F0.19347024313062872
sg307
F0.33333333333333331
sg308
F0.23529415666849657
sg309
F0.19083993068866079
sg310
F0.19347024313062869
sg311
F0.20449923085082455
sg312
F0.2192981270528
sg313
F0.33333333333333331
sg314
F0.19753066954823828
sg315
F0.2540810866805322
sg316
F0.19083993068866079
sg317
F0.29069766486816034
sg318
F0.41805148951271781
sg319
F0.21175233315125544
sg320
F0.41805148951271781
sg321
F0.25252537440783074
sg322
F0.21175233315125544
sg323
F0.27100270999999998
sg324
F0.23529415666849657
sg325
F0.33333333333333331
sg326
F0.33333333333333331
sg327
F0.2755984308217162
sg328
F0.22714379412634897
sg329
F0.17825342628022878
sg330
F0.33333333333333331
sg331
F0.33333333333333331
sg332
F0.33333333333333331
sg333
F0.41805148951271787
sg334
F0.25252537440783074
sg335
F0.21175233315125547
sg336
F0.22714379412634897
sg337
F0.17233932665099763
sg338
F0.33333333333333331
sg339
F0.2540810866805322
sg340
F0.41805148951271781
sg341
F0.33333333333333331
sg342
F0.17825342628022875
sg343
F0.31152647462277089
sg344
F0.20449923085082455
sg345
F0.21175233315125544
sg346
F0.18441676330676421
sg347
F0.31152647462277089
sg348
F0.25252537440783074
sg349
F0.17825342628022878
sg350
F0.20089982359883404
sg351
F0.25252537440783074
sg352
F0.24408714191507003
sg353
F0.19753066954823828
sg354
F0.22552062198355149
sg355
F0.17825342628022875
sg356
F0.38471395492426574
sg357
F0.23457437600205011
sg358
F0.33333333333333331
sg359
F0.18441676330676421
sg360
F0.41805148951271781
sg361
F0.33333333333333331
sg362
F0.20870465908522123
sg363
F0.24408714191507003
sg364
F0.29069766486816034
sg365
F0.19083993068866079
sg366
F0.31152647462277089
sg367
F0.25252537440783074
sg368
F0.29069766486816034
sg369
F0.31152647462277089
sg370
F0.33333333333333331
sg371
F0.19753066954823828
sg372
F0.24408714191507003
sg373
F0.41805148951271781
sg374
F0.17825342628022878
sg375
F0.33333333333333331
sg376
F0.41805148951271776
sg377
F0.22552062198355149
sg378
F0.32531934860122141
sg379
F0.2192981270528
sg380
F0.20449923085082455
sg381
F0.33333333333333331
sg382
F0.17825342628022878
sg383
F0.21175233315125547
sg384
F0.2540810866805322
sg385
F0.33333333333333331
sg386
F0.21690469701676698
sg387
F0.29069766486816034
sg388
F0.19083993068866079
sg389
F0.41805148951271776
sg390
F0.35377970078398546
sg391
F0.31152647462277089
sg392
F0.20870465908522123
sg393
F0.38471395492426574
sg394
F0.2192981270528
sg395
F0.2192981270528
sg396
F0.23529415666849657
sg397
F0.22714379412634897
sg398
F0.41805148951271781
sg399
F0.41805148951271787
sg400
F0.41805148951271787
sg401
F0.17825342628022878
sg402
F0.29069766486816034
sg403
F0.21175233315125547
sg404
F0.19753066954823828
sg405
F0.29069766486816034
sg406
F0.17233932665099769
sg407
F0.31152647462277089
sg408
F0.24408714191507003
sg409
F0.18441676330676421
sg410
F0.41805148951271781
sg411
F0.33333333333333331
sg412
F0.20870465908522123
sg413
L1L
sg414
F0.25252537440783074
sg415
F0.22714379412634897
sg416
F0.2540810866805322
sg417
F0.31152647462277089
sg418
F0.20449923085082455
sg419
F0.25252537440783074
sg420
F0.29069766486816034
sg421
F0.41805148951271781
sg422
F0.38471395492426574
sg423
F0.26457752214125774
sg424
F0.19083993068866079
sg425
F0.41805148951271781
sg426
F0.33333333333333331
sg427
F0.41805148951271781
sg428
F0.23529415666849657
sg429
F0.17233932665099763
sg430
F0.19753066954823828
sg431
F0.23457437600205011
sg432
F0.29069766486816034
sg433
F0.33333333333333331
sg434
F0.2192981270528
sg435
F0.22552062198355149
sg436
F0.41805148951271787
sg437
F0.26457752214125774
sg438
F0.25252537440783074
sg439
F0.41805148951271781
sg440
F0.17233932665099769
sg441
F0.21175233315125547
sg442
F0.19753066954823828
sg443
F0.31152647462277089
sg444
F0.32531934860122141
sg445
F0.19347024313062872
sg446
F0.20870465908522123
sg447
F0.21690469701676698
sg448
F0.20449923085082455
sg449
F0.33333333333333331
sg450
F0.24408714191507003
sg451
F0.32531934860122141
sg452
F0.2008998235988341
sg453
F0.17233932665099769
sg454
F0.21175233315125547
sg455
F0.20870465908522123
sg456
F0.21175233315125547
sg457
F0.38471395492426574
sg458
F0.19753066954823828
sg459
F0.2192981270528
sg460
F0.41805148951271781
sg461
F0.32531934860122141
sg462
F0.29069766486816034
sg463
F0.19083993068866079
sg464
F0.33333333333333331
sg465
F0.32531934860122141
sg466
F0.18441676330676421
sg467
F0.33333333333333331
sg468
F0.33333333333333331
sg469
F0.31152647462277089
sg470
F0.18441676330676421
sg471
F0.2755984308217162
sg472
F0.33333333333333331
sg473
F0.22714379412634897
sg474
F0.33333333333333331
sg475
F0.19083993068866079
sg476
F0.19083993068866079
sg477
F0.20870465908522123
sg478
F0.2192981270528
sg479
F0.18441676330676421
sg480
F0.23529415666849657
sg481
F0.33333333333333331
sg482
F0.19347024313062869
sg483
F0.24408714191507003
sg484
F0.2755984308217162
sg485
F0.38471395492426574
sg486
F0.2008998235988341
sg487
F0.41805148951271781
sg488
F0.21175233315125547
sg489
F0.20089982359883404
sg490
F0.31152647462277089
sg491
F0.41805148951271781
sg492
F0.21175233315125544
sg493
F0.33333333333333331
sg494
F0.17233932665099763
sg495
F0.2192981270528
sg496
F0.22714379412634897
sg497
F0.23457437600205011
sg498
F0.20449923085082455
sg499
F0.17233932665099769
sg500
F0.31152647462277089
sg501
F0.41805148951271781
sg502
F0.22714379412634897
sg503
F0.19083993068866079
sg504
F0.2192981270528
sg505
F0.33333333333333331
sg506
F0.33333333333333331
sg507
F0.31152647462277089
sg508
F0.2192981270528
sg509
F0.20449923085082455
sg510
F0.17825342628022878
sg511
F0.17233932665099769
sg512
F0.29929484467617895
sg513
F0.25252537440783074
sg514
F0.25252537440783074
sg515
F0.33333333333333331
sg516
F0.41805148951271781
sg517
F0.2192981270528
sg518
F0.27100270999999998
sg519
F0.19753066954823828
sg520
F0.38471395492426574
sg521
F0.32531934860122141
sg522
F0.33333333333333331
sg523
F0.29069766486816034
sg524
F0.29069766486816034
sg525
F0.23529415666849657
sg526
F0.38471395492426574
sg527
F0.33333333333333331
sg528
F0.41805148951271781
sg529
F0.17233932665099769
sg530
F0.21175233315125547
sg531
F0.22552062198355149
sg532
F0.19083993068866079
sg533
F0.33333333333333331
sg534
F0.29929484467617895
sg535
F0.17233932665099763
sg536
F0.29929484467617895
sg537
F0.27100270999999998
sg538
F0.18441676330676421
sg539
F0.27100270999999998
sg540
F0.23457437600205011
sg541
F0.41805148951271787
sg542
F0.17233932665099763
sg543
F0.2192981270528
sg544
F0.2755984308217162
sg545
F0.22714379412634897
sg546
F0.20449923085082455
sg547
F0.29929484467617895
sg548
F0.27100270999999998
sg549
F0.41805148951271781
sg550
F0.25252537440783074
sg551
F0.41805148951271781
sg552
F0.23529415666849657
sg553
F0.35377970078398546
sg554
F0.22714379412634897
sg555
F0.33333333333333331
sg556
F0.24408714191507003
sg557
F0.21175233315125547
sg558
F0.27100270999999998
sg559
F0.21690469701676696
sg560
F0.29069766486816034
sg561
F0.38471395492426574
sg562
F0.41805148951271781
sg563
F0.21175233315125544
sg564
F0.31152647462277089
sg565
F0.18441676330676421
sg566
F0.20870465908522123
sg567
F0.21690469701676698
sg568
F0.22552062198355149
sg569
F0.41805148951271781
sg570
F0.20449923085082455
sg571
F0.18441676330676421
sg572
F0.25252537440783074
sg573
F0.21175233315125544
sg574
F0.17233932665099763
sg575
F0.41805148951271787
sg576
F0.21690469701676696
sg577
F0.23529415666849657
sg578
F0.2008998235988341
sg579
F0.29069766486816034
sg580
F0.21175233315125547
sg581
F0.27100270999999998
sg582
F0.33333333333333331
sg583
F0.33333333333333331
sg584
F0.19347024313062872
sg585
F0.20449923085082455
sg586
F0.33333333333333331
sg587
F0.18441676330676421
sg588
F0.22714379412634897
sg589
F0.41805148951271781
sg590
F0.33333333333333331
sg591
F0.33333333333333331
sg592
F0.17233932665099769
sg593
F0.24408714191507003
sg594
F0.2540810866805322
sg595
F0.2008998235988341
sg596
F0.41805148951271781
sg597
F0.24408714191507003
sg598
F0.33333333333333331
sg599
F0.23529415666849657
sg600
F0.33333333333333331
sg601
F0.33333333333333331
sg602
F0.33333333333333331
sg603
F0.19753066954823828
sg604
F0.32531934860122141
sg605
F0.41805148951271781
sg606
F0.17825342628022875
sg607
F0.20089982359883404
sg608
F0.19083993068866079
sg609
F0.19083993068866079
sg610
F0.29929484467617895
sg611
F0.38471395492426574
sg612
F0.26457752214125774
sg613
F0.32531934860122141
sg614
F0.33333333333333331
sg615
F0.17233932665099769
sg616
F0.26457752214125774
sg617
F0.19753066954823828
sg618
F0.18441676330676421
sg619
F0.41805148951271781
sg620
F0.17233932665099769
sg621
F0.27100270999999998
sg622
F0.23529415666849657
sg623
F0.27100270999999998
sg624
F0.38471395492426574
sg625
F0.19347024313062869
sg626
F0.2192981270528
sg627
F0.22714379412634897
sg628
F0.26457752214125774
sg629
F0.33333333333333331
sg630
F0.20870465908522123
sg631
F0.33333333333333331
sg632
F0.33333333333333331
sg633
F0.29929484467617895
sg634
L0L
sg635
F0.21690469701676698
sg636
F0.33333333333333331
sg637
F0.20449923085082455
sg638
F0.19347024313062869
sg639
F0.29929484467617895
sg640
F0.33333333333333331
sg641
F0.27100270999999998
sg642
F0.22552062198355149
sg643
L1L
sg644
F0.29929484467617895
sg645
F0.29069766486816034
sg646
F0.17233932665099769
sg647
F0.41805148951271781
sg648
F0.33333333333333331
sg649
F0.33333333333333331
sg650
F0.33333333333333331
sg651
F0.2755984308217162
sg652
F0.29929484467617895
sg653
F0.18441676330676421
sg654
F0.33333333333333331
sg655
F0.33333333333333331
sg656
F0.21690469701676696
sg657
F0.33333333333333331
sg658
F0.2540810866805322
sg659
F0.21690469701676696
sg660
F0.22714379412634897
sg661
F0.21690469701676698
sg662
F0.2192981270528
sg663
F0.38471395492426574
sg664
F0.23529415666849657
sg665
F0.23457437600205011
sg666
F0.2755984308217162
sg667
F0.35377970078398546
sg668
F0.21175233315125547
sg669
F0.19347024313062872
sg670
F0.21175233315125547
sg671
F0.33333333333333331
sg672
F0.41805148951271781
sg673
F0.2192981270528
sg674
F0.33333333333333331
sg675
F0.33333333333333331
sg676
F0.33333333333333331
sg677
F0.33333333333333331
sg678
F0.22714379412634897
sg679
I01
sg680
F0.27100270999999998
sa.