(lp1
(dp2
S'rpr30 TOT_CORR_classes_min'
p3
F0.3025729441184799
sS'rpr30 TOT_CORR_spo'
p4
F0.3025729441184799
sS'rpr55 INTERACT_spo'
p5
F0.28129485492936324
sS'pr40 PMI_classes_min'
p6
F0.5
sS'r70 w_join'
p7
F0.3703702170538844
sS'rpr20 PMI_pred_obj'
p8
F0.31201366954733589
sS'r10 INTERACT_classes_max'
p9
F0.5
sS'r75 no_w'
p10
F0.36363651193471469
sS'rpr30 p_o'
p11
F0.3025729441184799
sS'r10 no_w'
p12
F0.47619046875000004
sS'pr20 INTERACT_classes_max'
p13
F0.5
sS'r70 IC_obj'
p14
F0.3703702170538844
sS'pr40 IC_pred'
p15
F0.41666662399999999
sS'pr30 TOT_CORR_classes_min'
p16
F0.43478249726562496
sS'rpr55 IC_obj'
p17
F0.28129485492936324
sS'rpr75 TOT_CORR_spo'
p18
F0.26631238417786052
sS'pr85 PMI_classes_min'
p19
F0.5
sS'rpr60 IC_obj'
p20
F0.27739332502424735
sS'r85 IC_obj'
p21
F0.35087736193586189
sS'r65 PMI_classes_max'
p22
F0.5
sS'r85 PMI_classes_min'
p23
F0.5
sS'pr75 p_o'
p24
F0.36363651193471469
sS'rpr20 no_w'
p25
F0.31201366954733589
sS'pr40 INTERACT_classes_min'
p26
F0.5
sS'rpr90 w_ic_pmi'
p27
F0.25608286324923296
sS'r80 w_ic_pmi'
p28
F0.35714270375116797
sS'pr75 PMI_classes_min'
p29
F0.5
sS'pr10 p_o'
p30
F0.47619046875000004
sS'r95 no_w'
p31
F0.33898329482877215
sS'rpr55 w_ic_pmi'
p32
F0.28129485492936324
sS'pr70 w_comb'
p33
F0.37037021705388429
sS'pr70 w_join'
p34
F0.3703702170538844
sS'pr55 INTERACT_spo'
p35
F0.39215678938631038
sS'rpr70 INTERACT_spo'
p36
F0.26990651886579664
sS'rpr90 w_comb'
p37
F0.25608286324923291
sS'rpr80 PMI_classes_max'
p38
F0.3327800361672244
sS'pr55 TOT_CORR_classes_min'
p39
F0.39215678938631038
sS'r20 w_ic_pmi'
p40
F0.45454550000000005
sS'rpr50 TOT_CORR_classes_max'
p41
F0.28530781139250838
sS'rpr55 PMI_classes_min'
p42
F0.33278003616722446
sS'pr70 no_w'
p43
F0.3703702170538844
sS'r60 p_o'
p44
F0.38461518021500002
sS'r50 w_comb'
p45
F0.40000009536743164
sS'pr20 INTERACT_spo'
p46
F0.45454550000000005
sS'r65 PMI_classes_min'
p47
F0.5
sS'pr90 IC_obj'
p48
F0.34482738877048452
sS'pr75 TOT_CORR_spo'
p49
F0.36363651193471469
sS'rpr95 PMI_classes_min'
p50
F0.33278003616722446
sS'pr65 IC_pred'
p51
F0.37735866087512393
sS'rpr20 INTERACT_classes_max'
p52
F0.33278003616722446
sS'rpr50 IC_pred'
p53
F0.28530781139250838
sS'r10 INTERACT_spo'
p54
F0.47619046875000004
sS'pr30 w_join'
p55
F0.43478249726562496
sS'rpr40 INTERACT_spo'
p56
F0.29368681556759718
sS'r20 IC_obj'
p57
F0.45454550000000005
sS'rpr55 w_comb'
p58
F0.28129485492936324
sS'r75 PMI_pred_obj'
p59
F0.36363651193471469
sS'pr30 INTERACT_classes_max'
p60
F0.5
sS'rpr80 TOT_CORR_spo'
p61
F0.26281280845087007
sS'pr95 no_w'
p62
F0.33898329482877215
sS'pr30 PMI_classes_max'
p63
F0.5
sS'rpr95 w_join'
p64
F0.25284519286310136
sS'pr70 PMI_classes_min'
p65
F0.5
sS'pr50 w_ic_pmi'
p66
F0.40000009536743164
sS'r85 w_ic_pmi'
p67
F0.35087736193586189
sS'pr30 no_w'
p68
F0.43478249726562496
sS'rpr90 no_w'
p69
F0.25608286324923296
sS'r90 TOT_CORR_classes_min'
p70
F0.34482738877048452
sS'r65 w_join'
p71
F0.37735866087512393
sS'pr10 INTERACT_spo'
p72
F0.47619046875000004
sS'r40 p_o'
p73
F0.41666662399999999
sS'pr95 p_o'
p74
F0.33898329482877215
sS'pr95 IC_pred'
p75
F0.33898329482877215
sS'pr55 PMI_pred_obj'
p76
F0.39215678938631038
sS'pr55 IC_obj'
p77
F0.39215678938631038
sS'r70 p_o'
p78
F0.3703702170538844
sS'rpr60 w_comb'
p79
F0.27739332502424729
sS'rpr90 TOT_CORR_spo'
p80
F0.25608286324923296
sS'r10 PMI_classes_max'
p81
F0.5
sS'pr90 w_ic_pmi'
p82
F0.34482738877048452
sS'r70 PMI_classes_max'
p83
F0.5
sS'r75 IC_pred'
p84
F0.36363651193471469
sS'pr10 IC_obj'
p85
F0.47619046875000004
sS'r50 IC_obj'
p86
F0.40000009536743164
sS'rpr60 PMI_pred_obj'
p87
F0.27739332502424735
sS'r75 IC_obj'
p88
F0.36363651193471469
sS'r20 PMI_classes_min'
p89
F0.5
sS'rpr10 w_comb'
p90
F0.32206243382592947
sS'pr60 IC_obj'
p91
F0.38461518021500002
sS'r30 w_join'
p92
F0.43478249726562496
sS'pr60 w_join'
p93
F0.38461518021500002
sS'r60 INTERACT_spo'
p94
F0.38461518021500002
sS'r70 INTERACT_classes_min'
p95
F0.5
sS'rpr30 w_ic_pmi'
p96
F0.3025729441184799
sS'r50 INTERACT_classes_min'
p97
F0.5
sS'pr75 w_comb'
p98
F0.36363651193471469
sS'pr80 INTERACT_classes_min'
p99
F0.5
sS'rpr75 PMI_classes_min'
p100
F0.33278003616722446
sS'pr80 TOT_CORR_classes_min'
p101
F0.35714270375116797
sS'pr90 p_o'
p102
F0.34482738877048452
sS'pr80 w_ic_pmi'
p103
F0.35714270375116797
sS'r60 w_ic_pmi'
p104
F0.38461518021500002
sS'pr40 p_o'
p105
F0.41666662399999999
sS'r20 no_w'
p106
F0.45454550000000005
sS'r60 TOT_CORR_classes_max'
p107
F0.38461518021500002
sS'r20 INTERACT_classes_min'
p108
F0.5
sS'rpr50 IC_obj'
p109
F0.28530781139250838
sS'pr30 p_o'
p110
F0.43478249726562496
sS'pr85 TOT_CORR_classes_max'
p111
F0.35087736193586189
sS'pr60 IC_pred'
p112
F0.38461518021500002
sS'pr75 TOT_CORR_classes_max'
p113
F0.36363651193471469
sS'pr80 PMI_classes_min'
p114
F0.5
sS'r75 w_join'
p115
F0.36363651193471469
sS'pr90 IC_pred'
p116
F0.34482738877048452
sS'pr85 INTERACT_classes_max'
p117
F0.5
sS'rpr95 no_w'
p118
F0.25284519286310136
sS'r50 no_w'
p119
F0.40000009536743164
sS'pr90 INTERACT_classes_min'
p120
F0.5
sS'r50 TOT_CORR_classes_max'
p121
F0.40000009536743164
sS'pr90 PMI_classes_max'
p122
F0.5
sS'r30 w_comb'
p123
F0.43478249726562496
sS'pr75 no_w'
p124
F0.36363651193471469
sS'rpr20 PMI_classes_min'
p125
F0.33278003616722446
sS'rpr75 TOT_CORR_classes_max'
p126
F0.26631238417786052
sS'rpr50 PMI_classes_min'
p127
F0.33278003616722446
sS'pr55 w_join'
p128
F0.39215678938631038
sS'r95 PMI_pred_obj'
p129
F0.33898329482877215
sS'r10 TOT_CORR_spo'
p130
F0.47619046875000004
sS'pr50 p_o'
p131
F0.40000009536743164
sS'rpr70 PMI_classes_max'
p132
F0.33278003616722446
sS'r95 w_ic_pmi'
p133
F0.33898329482877215
sS'rpr20 w_comb'
p134
F0.31201366954733589
sS'pr85 PMI_pred_obj'
p135
F0.35087736193586189
sS'r20 IC_pred'
p136
F0.45454550000000005
sS'r10 IC_pred'
p137
F0.47619046875000004
sS'pr70 IC_pred'
p138
F0.3703702170538844
sS'rpr90 TOT_CORR_classes_max'
p139
F0.25608286324923296
sS'rpr70 PMI_pred_obj'
p140
F0.26990651886579664
sS'r10 w_ic_pmi'
p141
F0.47619046875000004
sS'pr60 TOT_CORR_classes_min'
p142
F0.38461518021500002
sS'rpr70 IC_obj'
p143
F0.26990651886579664
sS'pr20 PMI_classes_min'
p144
F0.5
sS'pr50 PMI_pred_obj'
p145
F0.40000009536743164
sS'r60 INTERACT_classes_min'
p146
F0.5
sS'r90 IC_obj'
p147
F0.34482738877048452
sS'pr50 IC_obj'
p148
F0.40000009536743164
sS'r40 INTERACT_classes_max'
p149
F0.5
sS'pr30 PMI_pred_obj'
p150
F0.43478249726562496
sS'r80 TOT_CORR_classes_min'
p151
F0.35714270375116797
sS'rpr85 TOT_CORR_spo'
p152
F0.25940424595104189
sS'pr65 TOT_CORR_classes_max'
p153
F0.37735866087512393
sS'r95 p_o'
p154
F0.33898329482877215
sS'pr95 PMI_classes_min'
p155
F0.5
sS'r10 IC_obj'
p156
F0.47619046875000004
sS'pr95 w_join'
p157
F0.33898329482877215
sS'pr50 PMI_classes_min'
p158
F0.5
sS'pr60 INTERACT_classes_min'
p159
F0.5
sS'rpr20 TOT_CORR_classes_max'
p160
F0.31201366954733589
sS'rpr10 INTERACT_classes_max'
p161
F0.33278003616722446
sS'r85 INTERACT_classes_min'
p162
F0.5
sS'pr40 w_comb'
p163
F0.41666662399999999
sS'r75 TOT_CORR_spo'
p164
F0.36363651193471469
sS'r55 IC_obj'
p165
F0.39215678938631038
sS'rpr40 PMI_pred_obj'
p166
F0.29368681556759718
sS'pr65 PMI_classes_min'
p167
F0.5
sS'r30 IC_pred'
p168
F0.43478249726562496
sS'rpr95 w_comb'
p169
F0.2528451928631012
sS'r85 w_join'
p170
F0.35087736193586189
sS'pr75 IC_obj'
p171
F0.36363651193471469
sS'pr90 TOT_CORR_classes_min'
p172
F0.34482738877048452
sS'pr80 no_w'
p173
F0.35714270375116797
sS'rpr70 p_o'
p174
F0.26990651886579664
sS'pr55 PMI_classes_max'
p175
F0.5
sS'pr20 no_w'
p176
F0.45454550000000005
sS'pr80 IC_pred'
p177
F0.35714270375116797
sS'r40 w_join'
p178
F0.41666662399999999
sS'rpr60 no_w'
p179
F0.27739332502424735
sS'r55 p_o'
p180
F0.39215678938631038
sS'r95 INTERACT_classes_min'
p181
F0.5
sS'rpr65 INTERACT_classes_max'
p182
F0.33278003616722446
sS'r90 PMI_pred_obj'
p183
F0.34482738877048452
sS'r40 w_comb'
p184
F0.41666662399999999
sS'r30 INTERACT_spo'
p185
F0.43478249726562496
sS'rpr50 w_ic_pmi'
p186
F0.28530781139250838
sS'r50 PMI_pred_obj'
p187
F0.40000009536743164
sS'pr85 p_o'
p188
F0.35087736193586189
sS'rpr70 no_w'
p189
F0.26990651886579664
sS'rpr55 TOT_CORR_spo'
p190
F0.28129485492936324
sS'pr30 TOT_CORR_classes_max'
p191
F0.43478249726562496
sS'rpr85 IC_pred'
p192
F0.25940424595104189
sS'entity'
p193
L40370L
sS'r90 PMI_classes_min'
p194
F0.5
sS'pr85 no_w'
p195
F0.35087736193586189
sS'r20 TOT_CORR_spo'
p196
F0.45454550000000005
sS'r85 IC_pred'
p197
F0.35087736193586189
sS'rpr65 PMI_classes_max'
p198
F0.33278003616722446
sS'pr75 PMI_classes_max'
p199
F0.5
sS'rpr20 INTERACT_spo'
p200
F0.31201366954733589
sS'r30 w_ic_pmi'
p201
F0.43478249726562496
sS'rpr55 INTERACT_classes_max'
p202
F0.33278003616722446
sS'pr40 INTERACT_classes_max'
p203
F0.5
sS'pr85 IC_pred'
p204
F0.35087736193586189
sS'rpr75 PMI_pred_obj'
p205
F0.26631238417786052
sS'pr55 no_w'
p206
F0.39215678938631038
sS'rpr85 IC_obj'
p207
F0.25940424595104189
sS'r30 p_o'
p208
F0.43478249726562496
sS'r90 INTERACT_spo'
p209
F0.34482738877048452
sS'rpr20 IC_obj'
p210
F0.31201366954733589
sS'rpr20 p_o'
p211
F0.31201366954733589
sS'pr90 w_join'
p212
F0.34482738877048452
sS'rpr90 PMI_classes_min'
p213
F0.33278003616722446
sS'rpr75 INTERACT_spo'
p214
F0.26631238417786052
sS'r55 PMI_classes_max'
p215
F0.5
sS'pr55 TOT_CORR_classes_max'
p216
F0.39215678938631038
sS'pr65 w_join'
p217
F0.37735866087512393
sS'rpr85 INTERACT_classes_min'
p218
F0.33278003616722451
sS'rpr90 INTERACT_classes_min'
p219
F0.33278003616722446
sS'rpr80 w_ic_pmi'
p220
F0.26281280845087007
sS'r50 w_ic_pmi'
p221
F0.40000009536743164
sS'rpr75 p_o'
p222
F0.26631238417786052
sS'r55 INTERACT_classes_min'
p223
F0.5
sS'r90 p_o'
p224
F0.34482738877048452
sS'pr95 INTERACT_classes_min'
p225
F0.5
sS'rpr40 INTERACT_classes_min'
p226
F0.33278003616722446
sS'r70 TOT_CORR_classes_max'
p227
F0.3703702170538844
sS'r65 w_ic_pmi'
p228
F0.37735866087512393
sS'pr50 INTERACT_classes_min'
p229
F0.5
sS'rpr60 p_o'
p230
F0.27739332502424735
sS'rpr95 INTERACT_classes_min'
p231
F0.33278003616722446
sS'rpr65 IC_pred'
p232
F0.27359876370360886
sS'r90 TOT_CORR_classes_max'
p233
F0.34482738877048452
sS'rpr50 w_comb'
p234
F0.28530781139250838
sS'pr20 IC_obj'
p235
F0.45454550000000005
sS'r80 INTERACT_classes_max'
p236
F0.5
sS'pr90 w_comb'
p237
F0.34482738877048441
sS'r95 PMI_classes_max'
p238
F0.5
sS'r40 TOT_CORR_spo'
p239
F0.41666662399999999
sS'r85 p_o'
p240
F0.35087736193586189
sS'pr55 w_comb'
p241
F0.39215678938631032
sS'rpr60 TOT_CORR_classes_max'
p242
F0.27739332502424735
sS'rpr20 TOT_CORR_spo'
p243
F0.31201366954733589
sS'r85 PMI_pred_obj'
p244
F0.35087736193586189
sS'rpr10 PMI_classes_max'
p245
F0.33278003616722446
sS'pr80 w_join'
p246
F0.35714270375116797
sS'r40 IC_obj'
p247
F0.41666662399999999
sS'rpr50 PMI_pred_obj'
p248
F0.28530781139250838
sS'rpr75 IC_pred'
p249
F0.26631238417786052
sS'r90 w_comb'
p250
F0.34482738877048441
sS'r55 INTERACT_spo'
p251
F0.39215678938631038
sS'r20 TOT_CORR_classes_min'
p252
F0.45454550000000005
sS'pr70 TOT_CORR_classes_max'
p253
F0.3703702170538844
sS'r75 TOT_CORR_classes_min'
p254
F0.36363651193471469
sS'r40 no_w'
p255
F0.41666662399999999
sS'r10 PMI_pred_obj'
p256
F0.47619046875000004
sS'rpr85 INTERACT_spo'
p257
F0.25940424595104189
sS'r70 PMI_pred_obj'
p258
F0.3703702170538844
sS'r10 w_comb'
p259
F0.47619046875000004
sS'pr85 w_ic_pmi'
p260
F0.35087736193586189
sS'r70 PMI_classes_min'
p261
F0.5
sS'r10 PMI_classes_min'
p262
F0.5
sS'rpr55 PMI_pred_obj'
p263
F0.28129485492936324
sS'rpr30 PMI_classes_min'
p264
F0.33278003616722446
sS'rpr65 p_o'
p265
F0.27359876370360886
sS'pr40 PMI_classes_max'
p266
F0.5
sS'pr80 IC_obj'
p267
F0.35714270375116797
sS'pr50 no_w'
p268
F0.40000009536743164
sS'pr70 PMI_pred_obj'
p269
F0.3703702170538844
sS'r10 INTERACT_classes_min'
p270
F0.5
sS'rpr80 no_w'
p271
F0.26281280845087007
sS'rpr70 IC_pred'
p272
F0.26990651886579664
sS'r80 PMI_classes_max'
p273
F0.5
sS'pr60 PMI_classes_max'
p274
F0.5
sS'rpr70 w_join'
p275
F0.26990651886579664
sS'rpr20 w_ic_pmi'
p276
F0.31201366954733589
sS'pr40 TOT_CORR_classes_min'
p277
F0.41666662399999999
sS'rpr40 TOT_CORR_classes_min'
p278
F0.29368681556759718
sS'r20 INTERACT_classes_max'
p279
F0.5
sS'pr90 no_w'
p280
F0.34482738877048452
sS'pr60 w_comb'
p281
F0.38461518021499996
sS'pr80 p_o'
p282
F0.35714270375116797
sS'pr80 TOT_CORR_classes_max'
p283
F0.35714270375116797
sS'pr80 INTERACT_classes_max'
p284
F0.5
sS'r70 no_w'
p285
F0.3703702170538844
sS'pr90 INTERACT_classes_max'
p286
F0.5
sS'pr20 w_join'
p287
F0.45454550000000005
sS'rpr65 INTERACT_spo'
p288
F0.27359876370360886
sS'r80 IC_obj'
p289
F0.35714270375116797
sS'pr75 w_ic_pmi'
p290
F0.36363651193471469
sS'r50 PMI_classes_max'
p291
F0.5
sS'pr50 TOT_CORR_classes_min'
p292
F0.40000009536743164
sS'r65 PMI_pred_obj'
p293
F0.37735866087512393
sS'rpr50 PMI_classes_max'
p294
F0.33278003616722446
sS'r40 INTERACT_spo'
p295
F0.41666662399999999
sS'rpr70 PMI_classes_min'
p296
F0.33278003616722446
sS'r30 PMI_pred_obj'
p297
F0.43478249726562496
sS'r70 w_ic_pmi'
p298
F0.3703702170538844
sS'rpr95 IC_pred'
p299
F0.25284519286310136
sS'r85 PMI_classes_max'
p300
F0.5
sS'rpr55 TOT_CORR_classes_min'
p301
F0.28129485492936324
sS'pr55 INTERACT_classes_min'
p302
F0.5
sS'r80 TOT_CORR_spo'
p303
F0.35714270375116797
sS'pr50 w_comb'
p304
F0.40000009536743164
sS'r40 TOT_CORR_classes_min'
p305
F0.41666662399999999
sS'rpr95 TOT_CORR_spo'
p306
F0.25284519286310136
sS'r90 INTERACT_classes_min'
p307
F0.5
sS'pr50 IC_pred'
p308
F0.40000009536743164
sS'r80 PMI_pred_obj'
p309
F0.35714270375116797
sS'rpr95 TOT_CORR_classes_min'
p310
F0.25284519286310136
sS'r70 INTERACT_spo'
p311
F0.3703702170538844
sS'pr60 PMI_pred_obj'
p312
F0.38461518021500002
sS'pr75 INTERACT_classes_min'
p313
F0.5
sS'r75 w_comb'
p314
F0.36363651193471469
sS'rpr60 w_join'
p315
F0.27739332502424735
sS'r80 TOT_CORR_classes_max'
p316
F0.35714270375116797
sS'r20 w_comb'
p317
F0.45454550000000005
sS'rpr75 PMI_classes_max'
p318
F0.33278003616722446
sS'pr65 TOT_CORR_classes_min'
p319
F0.37735866087512393
sS'rpr75 INTERACT_classes_max'
p320
F0.33278003616722446
sS'pr40 TOT_CORR_spo'
p321
F0.41666662399999999
sS'pr65 p_o'
p322
F0.37735866087512393
sS'r30 no_w'
p323
F0.43478249726562496
sS'r50 w_join'
p324
F0.40000009536743164
sS'pr50 PMI_classes_max'
p325
F0.5
sS'pr95 PMI_classes_max'
p326
F0.5
sS'rpr50 w_join'
p327
F0.28530781139250838
sS'r55 IC_pred'
p328
F0.39215678938631038
sS'r90 no_w'
p329
F0.34482738877048452
sS'r80 INTERACT_classes_min'
p330
F0.5
sS'r60 PMI_classes_max'
p331
F0.5
sS'r95 INTERACT_classes_max'
p332
F0.5
sS'rpr65 INTERACT_classes_min'
p333
F0.33278003616722446
sS'pr40 w_join'
p334
F0.41666662399999999
sS'r65 no_w'
p335
F0.37735866087512393
sS'pr55 TOT_CORR_spo'
p336
F0.39215678938631038
sS'r95 TOT_CORR_classes_max'
p337
F0.33898329482877215
sS'pr55 PMI_classes_min'
p338
F0.5
sS'rpr60 INTERACT_spo'
p339
F0.27739332502424735
sS'rpr75 INTERACT_classes_min'
p340
F0.33278003616722446
sS'pr0'
p341
F0.5
sS'pr90 TOT_CORR_classes_max'
p342
F0.34482738877048452
sS'pr10 w_ic_pmi'
p343
F0.47619046875000004
sS'pr70 p_o'
p344
F0.3703702170538844
sS'r65 TOT_CORR_classes_max'
p345
F0.37735866087512393
sS'r85 INTERACT_spo'
p346
F0.35087736193586189
sS'pr10 PMI_pred_obj'
p347
F0.47619046875000004
sS'r40 w_ic_pmi'
p348
F0.41666662399999999
sS'r90 IC_pred'
p349
F0.34482738877048452
sS'rpr90 TOT_CORR_classes_min'
p350
F0.25608286324923296
sS'pr40 IC_obj'
p351
F0.41666662399999999
sS'rpr65 no_w'
p352
F0.27359876370360886
sS'pr75 IC_pred'
p353
F0.36363651193471469
sS'rpr75 w_join'
p354
F0.26631238417786052
sS'r90 w_join'
p355
F0.34482738877048452
sS'rpr10 w_join'
p356
F0.32206243382592947
sS'rpr70 TOT_CORR_classes_max'
p357
F0.26990651886579664
sS'r30 PMI_classes_min'
p358
F0.5
sS'r85 no_w'
p359
F0.35087736193586189
sS'rpr80 INTERACT_classes_min'
p360
F0.3327800361672244
sS'pr70 INTERACT_classes_max'
p361
F0.5
sS'rpr85 w_join'
p362
F0.25940424595104189
sS'rpr65 TOT_CORR_classes_max'
p363
F0.27359876370360886
sS'r20 w_join'
p364
F0.45454550000000005
sS'r80 p_o'
p365
F0.35714270375116797
sS'pr10 w_join'
p366
F0.47619046875000004
sS'pr40 no_w'
p367
F0.41666662399999999
sS'pr20 TOT_CORR_classes_min'
p368
F0.45454550000000005
sS'pr10 w_comb'
p369
F0.47619046875000004
sS'pr85 PMI_classes_max'
p370
F0.5
sS'pr75 PMI_pred_obj'
p371
F0.36363651193471469
sS'rpr65 IC_obj'
p372
F0.27359876370360886
sS'rpr60 INTERACT_classes_max'
p373
F0.33278003616722446
sS'pr90 TOT_CORR_spo'
p374
F0.34482738877048452
sS'r55 PMI_classes_min'
p375
F0.5
sS'rpr90 PMI_classes_max'
p376
F0.33278003616722446
sS'rpr75 w_ic_pmi'
p377
F0.26631238417786052
sS'rpr30 INTERACT_spo'
p378
F0.3025729441184799
sS'r60 no_w'
p379
F0.38461518021500002
sS'r70 TOT_CORR_classes_min'
p380
F0.3703702170538844
sS'r55 INTERACT_classes_max'
p381
F0.5
sS'pr90 PMI_pred_obj'
p382
F0.34482738877048452
sS'r65 IC_obj'
p383
F0.37735866087512393
sS'rpr60 IC_pred'
p384
F0.27739332502424735
sS'pr95 INTERACT_classes_max'
p385
F0.5
sS'rpr80 w_comb'
p386
F0.26281280845087007
sS'pr20 w_comb'
p387
F0.45454550000000005
sS'pr80 w_comb'
p388
F0.35714270375116791
sS'rpr90 INTERACT_classes_max'
p389
F0.33278003616722446
sS'rpr20 w_join'
p390
F0.31201366954733589
sS'pr10 no_w'
p391
F0.47619046875000004
sS'rpr85 w_ic_pmi'
p392
F0.25940424595104189
sS'rpr10 INTERACT_spo'
p393
F0.32206243382592947
sS'pr60 TOT_CORR_classes_max'
p394
F0.38461518021500002
sS'pr60 INTERACT_spo'
p395
F0.38461518021500002
sS'pr50 INTERACT_spo'
p396
F0.40000009536743164
sS'pr55 w_ic_pmi'
p397
F0.39215678938631038
sS'rpr40 INTERACT_classes_max'
p398
F0.33278003616722446
sS'rpr70 INTERACT_classes_max'
p399
F0.33278003616722446
sS'rpr20 PMI_classes_max'
p400
F0.33278003616722446
sS'r90 TOT_CORR_spo'
p401
F0.34482738877048452
sS'pr20 PMI_pred_obj'
p402
F0.45454550000000005
sS'r65 w_comb'
p403
F0.37735866087512393
sS'r75 INTERACT_spo'
p404
F0.36363651193471469
sS'r20 INTERACT_spo'
p405
F0.45454550000000005
sS'pr95 INTERACT_spo'
p406
F0.33898329482877215
sS'r10 p_o'
p407
F0.47619046875000004
sS'rpr65 PMI_pred_obj'
p408
F0.27359876370360886
sS'r85 TOT_CORR_classes_min'
p409
F0.35087736193586189
sS'rpr40 PMI_classes_min'
p410
F0.33278003616722446
sS'pr10 INTERACT_classes_max'
p411
F0.5
sS'rpr85 no_w'
p412
F0.25940424595104189
sS'degree'
p413
L1L
sS'r40 IC_pred'
p414
F0.41666662399999999
sS'r55 w_ic_pmi'
p415
F0.39215678938631038
sS'rpr60 TOT_CORR_classes_min'
p416
F0.27739332502424735
sS'r10 TOT_CORR_classes_max'
p417
F0.47619046875000004
sS'pr70 TOT_CORR_classes_min'
p418
F0.3703702170538844
sS'pr40 INTERACT_spo'
p419
F0.41666662399999999
sS'r20 p_o'
p420
F0.45454550000000005
sS'rpr50 INTERACT_classes_min'
p421
F0.33278003616722446
sS'rpr10 w_ic_pmi'
p422
F0.32206243382592947
sS'rpr55 p_o'
p423
F0.28129485492936324
sS'pr80 TOT_CORR_spo'
p424
F0.35714270375116797
sS'rpr30 PMI_classes_max'
p425
F0.33278003616722446
sS'pr60 PMI_classes_min'
p426
F0.5
sS'rpr10 INTERACT_classes_min'
p427
F0.33278003616722446
sS'r50 IC_pred'
p428
F0.40000009536743164
sS'pr95 TOT_CORR_classes_max'
p429
F0.33898329482877215
sS'r75 TOT_CORR_classes_max'
p430
F0.36363651193471469
sS'rpr70 TOT_CORR_classes_min'
p431
F0.26990651886579664
sS'pr20 p_o'
p432
F0.45454550000000005
sS'r90 PMI_classes_max'
p433
F0.5
sS'pr60 TOT_CORR_spo'
p434
F0.38461518021500002
sS'rpr75 no_w'
p435
F0.26631238417786052
sS'rpr65 PMI_classes_min'
p436
F0.33278003616722446
sS'rpr55 w_join'
p437
F0.28129485492936324
sS'pr40 w_ic_pmi'
p438
F0.41666662399999999
sS'rpr60 PMI_classes_min'
p439
F0.33278003616722446
sS'pr95 PMI_pred_obj'
p440
F0.33898329482877215
sS'r65 TOT_CORR_spo'
p441
F0.37735866087512393
sS'r75 p_o'
p442
F0.36363651193471469
sS'pr10 TOT_CORR_classes_min'
p443
F0.47619046875000004
sS'rpr30 w_comb'
p444
F0.3025729441184799
sS'rpr95 INTERACT_spo'
p445
F0.25284519286310136
sS'rpr85 p_o'
p446
F0.25940424595104189
sS'rpr80 PMI_pred_obj'
p447
F0.26281280845087007
sS'r70 TOT_CORR_spo'
p448
F0.3703702170538844
sS'pr65 INTERACT_classes_max'
p449
F0.5
sS'rpr65 w_join'
p450
F0.27359876370360886
sS'rpr30 w_join'
p451
F0.3025729441184799
sS'rpr90 IC_obj'
p452
F0.25608286324923296
sS'pr95 TOT_CORR_spo'
p453
F0.33898329482877215
sS'pr65 no_w'
p454
F0.37735866087512393
sS'rpr85 TOT_CORR_classes_min'
p455
F0.25940424595104189
sS'r65 INTERACT_spo'
p456
F0.37735866087512393
sS'rpr10 PMI_pred_obj'
p457
F0.32206243382592947
sS'r75 w_ic_pmi'
p458
F0.36363651193471469
sS'pr60 p_o'
p459
F0.38461518021500002
sS'rpr85 PMI_classes_min'
p460
F0.33278003616722451
sS'rpr30 PMI_pred_obj'
p461
F0.3025729441184799
sS'pr20 w_ic_pmi'
p462
F0.45454550000000005
sS'pr80 PMI_pred_obj'
p463
F0.35714270375116797
sS'r40 PMI_classes_min'
p464
F0.5
sS'rpr30 IC_pred'
p465
F0.3025729441184799
sS'r85 w_comb'
p466
F0.35087736193586189
sS'r65 INTERACT_classes_max'
p467
F0.5
sS'r60 PMI_classes_min'
p468
F0.5
sS'r10 w_join'
p469
F0.47619046875000004
sS'pr85 w_comb'
p470
F0.35087736193586189
sS'rpr50 no_w'
p471
F0.28530781139250838
sS'r90 INTERACT_classes_max'
p472
F0.5
sS'r55 w_join'
p473
F0.39215678938631038
sS'pr55 INTERACT_classes_max'
p474
F0.5
sS'r80 no_w'
p475
F0.35714270375116797
sS'r80 IC_pred'
p476
F0.35714270375116797
sS'rpr85 w_comb'
p477
F0.25940424595104183
sS'pr60 w_ic_pmi'
p478
F0.38461518021500002
sS'pr85 w_join'
p479
F0.35087736193586189
sS'r50 INTERACT_spo'
p480
F0.40000009536743164
sS'r75 PMI_classes_min'
p481
F0.5
sS'rpr95 w_ic_pmi'
p482
F0.25284519286310136
sS'rpr65 w_comb'
p483
F0.27359876370360886
sS'rpr50 TOT_CORR_classes_min'
p484
F0.28530781139250838
sS'rpr10 IC_obj'
p485
F0.32206243382592947
sS'rpr90 PMI_pred_obj'
p486
F0.25608286324923296
sS'rpr80 PMI_classes_min'
p487
F0.3327800361672244
sS'pr65 INTERACT_spo'
p488
F0.37735866087512393
sS'rpr90 p_o'
p489
F0.25608286324923296
sS'pr10 TOT_CORR_spo'
p490
F0.47619046875000004
sS'rpr55 PMI_classes_max'
p491
F0.33278003616722446
sS'r65 TOT_CORR_classes_min'
p492
F0.37735866087512393
sS'r30 INTERACT_classes_min'
p493
F0.5
sS'r95 TOT_CORR_classes_min'
p494
F0.33898329482877215
sS'r60 w_join'
p495
F0.38461518021500002
sS'r55 TOT_CORR_classes_min'
p496
F0.39215678938631038
sS'rpr70 w_ic_pmi'
p497
F0.26990651886579664
sS'pr70 TOT_CORR_spo'
p498
F0.3703702170538844
sS'pr95 IC_obj'
p499
F0.33898329482877215
sS'pr10 TOT_CORR_classes_max'
p500
F0.47619046875000004
sS'rpr10 PMI_classes_min'
p501
F0.33278003616722446
sS'r55 w_comb'
p502
F0.39215678938631032
sS'r80 w_comb'
p503
F0.35714270375116791
sS'pr60 no_w'
p504
F0.38461518021500002
sS'r75 INTERACT_classes_min'
p505
F0.5
sS'pr10 PMI_classes_max'
p506
F0.5
sS'pr10 IC_pred'
p507
F0.47619046875000004
sS'r60 IC_pred'
p508
F0.38461518021500002
sS'r70 w_comb'
p509
F0.37037021705388429
sS'pr90 INTERACT_spo'
p510
F0.34482738877048452
sS'r95 TOT_CORR_spo'
p511
F0.33898329482877215
sS'rpr40 TOT_CORR_classes_max'
p512
F0.29368681556759718
sS'pr40 PMI_pred_obj'
p513
F0.41666662399999999
sS'pr40 TOT_CORR_classes_max'
p514
F0.41666662399999999
sS'r30 PMI_classes_max'
p515
F0.5
sS'rpr30 INTERACT_classes_max'
p516
F0.33278003616722446
sS'r60 PMI_pred_obj'
p517
F0.38461518021500002
sS'r30 TOT_CORR_classes_min'
p518
F0.43478249726562496
sS'pr75 INTERACT_spo'
p519
F0.36363651193471469
sS'rpr10 p_o'
p520
F0.32206243382592947
sS'rpr30 no_w'
p521
F0.3025729441184799
sS'r20 PMI_classes_max'
p522
F0.5
sS'pr20 TOT_CORR_classes_max'
p523
F0.45454550000000005
sS'pr20 IC_pred'
p524
F0.45454550000000005
sS'r50 p_o'
p525
F0.40000009536743164
sS'rpr10 no_w'
p526
F0.32206243382592947
sS'pr20 INTERACT_classes_min'
p527
F0.5
sS'rpr60 INTERACT_classes_min'
p528
F0.33278003616722446
sS'r95 INTERACT_spo'
p529
F0.33898329482877215
sS'r65 IC_pred'
p530
F0.37735866087512393
sS'rpr75 IC_obj'
p531
F0.26631238417786052
sS'r80 INTERACT_spo'
p532
F0.35714270375116797
sS'r85 INTERACT_classes_max'
p533
F0.5
sS'rpr40 IC_pred'
p534
F0.29368681556759718
sS'r95 w_join'
p535
F0.33898329482877215
sS'rpr40 IC_obj'
p536
F0.29368681556759718
sS'pr30 INTERACT_spo'
p537
F0.43478249726562496
sS'r85 TOT_CORR_spo'
p538
F0.35087736193586189
sS'pr30 w_ic_pmi'
p539
F0.43478249726562496
sS'rpr70 TOT_CORR_spo'
p540
F0.26990651886579664
sS'rpr70 INTERACT_classes_min'
p541
F0.33278003616722446
sS'pr95 w_ic_pmi'
p542
F0.33898329482877215
sS'r60 w_comb'
p543
F0.38461518021499996
sS'rpr50 p_o'
p544
F0.28530781139250838
sS'pr55 IC_pred'
p545
F0.39215678938631038
sS'pr70 IC_obj'
p546
F0.3703702170538844
sS'rpr40 w_join'
p547
F0.29368681556759718
sS'r30 IC_obj'
p548
F0.43478249726562496
sS'rpr55 INTERACT_classes_min'
p549
F0.33278003616722446
sS'r40 PMI_pred_obj'
p550
F0.41666662399999999
sS'rpr85 INTERACT_classes_max'
p551
F0.33278003616722451
sS'pr50 TOT_CORR_spo'
p552
F0.40000009536743164
sS'rpr20 TOT_CORR_classes_min'
p553
F0.31201366954733589
sS'r55 no_w'
p554
F0.39215678938631038
sS'pr75 INTERACT_classes_max'
p555
F0.5
sS'rpr65 TOT_CORR_spo'
p556
F0.27359876370360886
sS'pr65 TOT_CORR_spo'
p557
F0.37735866087512393
sS'pr30 w_comb'
p558
F0.43478249726562496
sS'rpr80 TOT_CORR_classes_min'
p559
F0.26281280845087007
sS'r20 TOT_CORR_classes_max'
p560
F0.45454550000000005
sS'rpr10 TOT_CORR_classes_min'
p561
F0.32206243382592947
sS'rpr50 INTERACT_classes_max'
p562
F0.33278003616722446
sS'pr65 w_ic_pmi'
p563
F0.37735866087512393
sS'r10 TOT_CORR_classes_min'
p564
F0.47619046875000004
sS'pr85 INTERACT_spo'
p565
F0.35087736193586189
sS'rpr85 PMI_pred_obj'
p566
F0.25940424595104189
sS'rpr80 IC_pred'
p567
F0.26281280845087007
sS'rpr75 TOT_CORR_classes_min'
p568
F0.26631238417786052
sS'rpr80 INTERACT_classes_max'
p569
F0.3327800361672244
sS'pr70 INTERACT_spo'
p570
F0.3703702170538844
sS'r85 TOT_CORR_classes_max'
p571
F0.35087736193586189
sS'r40 TOT_CORR_classes_max'
p572
F0.41666662399999999
sS'r65 p_o'
p573
F0.37735866087512393
sS'pr95 TOT_CORR_classes_min'
p574
F0.33898329482877215
sS'rpr20 INTERACT_classes_min'
p575
F0.33278003616722446
sS'rpr80 w_join'
p576
F0.26281280845087007
sS'r50 TOT_CORR_spo'
p577
F0.40000009536743164
sS'rpr90 IC_pred'
p578
F0.25608286324923296
sS'r20 PMI_pred_obj'
p579
F0.45454550000000005
sS'pr65 IC_obj'
p580
F0.37735866087512393
sS'pr30 TOT_CORR_spo'
p581
F0.43478249726562496
sS'pr30 PMI_classes_min'
p582
F0.5
sS'pr70 PMI_classes_max'
p583
F0.5
sS'rpr95 PMI_pred_obj'
p584
F0.25284519286310136
sS'pr70 w_ic_pmi'
p585
F0.3703702170538844
sS'pr30 INTERACT_classes_min'
p586
F0.5
sS'pr85 IC_obj'
p587
F0.35087736193586189
sS'pr55 p_o'
p588
F0.39215678938631038
sS'rpr40 PMI_classes_max'
p589
F0.33278003616722446
sS'r50 PMI_classes_min'
p590
F0.5
sS'r80 PMI_classes_min'
p591
F0.5
sS'r95 IC_pred'
p592
F0.33898329482877215
sS'rpr65 w_ic_pmi'
p593
F0.27359876370360886
sS'rpr60 TOT_CORR_spo'
p594
F0.27739332502424735
sS'rpr90 INTERACT_spo'
p595
F0.25608286324923296
sS'rpr60 PMI_classes_max'
p596
F0.33278003616722446
sS'rpr65 TOT_CORR_classes_min'
p597
F0.27359876370360886
sS'pr70 INTERACT_classes_min'
p598
F0.5
sS'pr50 TOT_CORR_classes_max'
p599
F0.40000009536743164
sS'r65 INTERACT_classes_min'
p600
F0.5
sS'r50 INTERACT_classes_max'
p601
F0.5
sS'r70 INTERACT_classes_max'
p602
F0.5
sS'pr75 w_join'
p603
F0.36363651193471469
sS'rpr30 TOT_CORR_classes_max'
p604
F0.3025729441184799
sS'rpr85 PMI_classes_max'
p605
F0.33278003616722451
sS'r90 w_ic_pmi'
p606
F0.34482738877048452
sS'rpr90 w_join'
p607
F0.25608286324923296
sS'pr80 INTERACT_spo'
p608
F0.35714270375116797
sS'r80 w_join'
p609
F0.35714270375116797
sS'rpr40 TOT_CORR_spo'
p610
F0.29368681556759718
sS'rpr10 TOT_CORR_classes_max'
p611
F0.32206243382592947
sS'rpr55 no_w'
p612
F0.28129485492936324
sS'rpr30 IC_obj'
p613
F0.3025729441184799
sS'r40 PMI_classes_max'
p614
F0.5
sS'r95 w_comb'
p615
F0.33898329482877204
sS'rpr55 TOT_CORR_classes_max'
p616
F0.28129485492936324
sS'pr75 TOT_CORR_classes_min'
p617
F0.36363651193471469
sS'pr85 TOT_CORR_classes_min'
p618
F0.35087736193586189
sS'rpr95 PMI_classes_max'
p619
F0.33278003616722446
sS'r95 IC_obj'
p620
F0.33898329482877215
sS'pr30 IC_pred'
p621
F0.43478249726562496
sS'r50 TOT_CORR_classes_min'
p622
F0.40000009536743164
sS'r30 TOT_CORR_spo'
p623
F0.43478249726562496
sS'rpr10 TOT_CORR_spo'
p624
F0.32206243382592947
sS'rpr95 TOT_CORR_classes_max'
p625
F0.25284519286310136
sS'r60 TOT_CORR_classes_min'
p626
F0.38461518021500002
sS'r55 TOT_CORR_spo'
p627
F0.39215678938631038
sS'rpr55 IC_pred'
p628
F0.28129485492936324
sS'pr80 PMI_classes_max'
p629
F0.5
sS'rpr85 TOT_CORR_classes_max'
p630
F0.25940424595104189
sS'pr10 INTERACT_classes_min'
p631
F0.5
sS'pr90 PMI_classes_min'
p632
F0.5
sS'rpr40 no_w'
p633
F0.29368681556759718
sS'in_degree'
p634
L0L
sS'rpr80 IC_obj'
p635
F0.26281280845087007
sS'r75 PMI_classes_max'
p636
F0.5
sS'r70 IC_pred'
p637
F0.3703702170538844
sS'rpr95 p_o'
p638
F0.25284519286310136
sS'rpr40 w_comb'
p639
F0.29368681556759718
sS'pr85 INTERACT_classes_min'
p640
F0.5
sS'pr30 IC_obj'
p641
F0.43478249726562496
sS'rpr75 w_comb'
p642
F0.26631238417786052
sS'out_degree'
p643
L1L
sS'rpr40 p_o'
p644
F0.29368681556759718
sS'pr20 TOT_CORR_spo'
p645
F0.45454550000000005
sS'pr95 w_comb'
p646
F0.33898329482877204
sS'rpr95 INTERACT_classes_max'
p647
F0.33278003616722446
sS'r30 INTERACT_classes_max'
p648
F0.5
sS'pr50 INTERACT_classes_max'
p649
F0.5
sS'r40 INTERACT_classes_min'
p650
F0.5
sS'rpr50 TOT_CORR_spo'
p651
F0.28530781139250838
sS'rpr40 w_ic_pmi'
p652
F0.29368681556759718
sS'pr85 TOT_CORR_spo'
p653
F0.35087736193586189
sS'pr10 PMI_classes_min'
p654
F0.5
sS'r60 INTERACT_classes_max'
p655
F0.5
sS'rpr80 TOT_CORR_classes_max'
p656
F0.26281280845087007
sS'pr20 PMI_classes_max'
p657
F0.5
sS'rpr60 w_ic_pmi'
p658
F0.27739332502424735
sS'rpr80 p_o'
p659
F0.26281280845087007
sS'r55 TOT_CORR_classes_max'
p660
F0.39215678938631038
sS'rpr80 INTERACT_spo'
p661
F0.26281280845087007
sS'r60 TOT_CORR_spo'
p662
F0.38461518021500002
sS'rpr10 IC_pred'
p663
F0.32206243382592947
sS'pr50 w_join'
p664
F0.40000009536743164
sS'rpr70 w_comb'
p665
F0.26990651886579653
sS'rpr50 INTERACT_spo'
p666
F0.28530781139250838
sS'rpr20 IC_pred'
p667
F0.31201366954733589
sS'pr65 PMI_pred_obj'
p668
F0.37735866087512393
sS'rpr95 IC_obj'
p669
F0.25284519286310136
sS'pr65 w_comb'
p670
F0.37735866087512393
sS'r75 INTERACT_classes_max'
p671
F0.5
sS'rpr30 INTERACT_classes_min'
p672
F0.33278003616722446
sS'r60 IC_obj'
p673
F0.38461518021500002
sS'pr65 PMI_classes_max'
p674
F0.5
sS'r95 PMI_classes_min'
p675
F0.5
sS'pr60 INTERACT_classes_max'
p676
F0.5
sS'pr65 INTERACT_classes_min'
p677
F0.5
sS'r55 PMI_pred_obj'
p678
F0.39215678938631038
sS'starting'
p679
I01
sS'r30 TOT_CORR_classes_max'
p680
F0.43478249726562496
sa(dp681
g3
F0.6974270558815201
sg4
F0.6974270558815201
sg5
F0.71870514507063699
sg6
F0.5
sg7
F0.62962978294611571
sg8
F0.68798633045266433
sg9
F0.5
sg10
F0.63636348806528531
sg11
F0.6974270558815201
sg12
F0.52380953124999996
sg13
F0.5
sg14
F0.62962978294611571
sg15
F0.58333337600000001
sg16
F0.56521750273437499
sg17
F0.71870514507063699
sg18
F0.7336876158221397
sg19
F0.5
sg20
F0.72260667497575293
sg21
F0.64912263806413795
sg22
F0.5
sg23
F0.5
sg24
F0.63636348806528531
sg25
F0.68798633045266433
sg26
F0.5
sg27
F0.74391713675076754
sg28
F0.64285729624883192
sg29
F0.5
sg30
F0.52380953124999996
sg31
F0.66101670517122779
sg32
F0.71870514507063699
sg33
F0.62962978294611549
sg34
F0.62962978294611571
sg35
F0.60784321061368973
sg36
F0.73009348113420369
sg37
F0.74391713675076732
sg38
F0.6672199638327756
sg39
F0.60784321061368973
sg40
F0.54545450000000006
sg41
F0.71469218860749173
sg42
F0.6672199638327756
sg43
F0.62962978294611571
sg44
F0.61538481978500004
sg45
F0.59999990463256836
sg46
F0.54545450000000006
sg47
F0.5
sg48
F0.65517261122951531
sg49
F0.63636348806528531
sg50
F0.6672199638327756
sg51
F0.62264133912487596
sg52
F0.66721996383277571
sg53
F0.71469218860749173
sg54
F0.52380953124999996
sg55
F0.56521750273437499
sg56
F0.70631318443240287
sg57
F0.54545450000000006
sg58
F0.71870514507063699
sg59
F0.63636348806528531
sg60
F0.5
sg61
F0.73718719154913004
sg62
F0.66101670517122779
sg63
F0.5
sg64
F0.74715480713689952
sg65
F0.5
sg66
F0.59999990463256836
sg67
F0.64912263806413795
sg68
F0.56521750273437499
sg69
F0.74391713675076754
sg70
F0.65517261122951531
sg71
F0.62264133912487596
sg72
F0.52380953124999996
sg73
F0.58333337600000001
sg74
F0.66101670517122779
sg75
F0.66101670517122779
sg76
F0.60784321061368973
sg77
F0.60784321061368973
sg78
F0.62962978294611571
sg79
F0.72260667497575271
sg80
F0.74391713675076754
sg81
F0.5
sg82
F0.65517261122951531
sg83
F0.5
sg84
F0.63636348806528531
sg85
F0.52380953124999996
sg86
F0.59999990463256836
sg87
F0.72260667497575293
sg88
F0.63636348806528531
sg89
F0.5
sg90
F0.67793756617407053
sg91
F0.61538481978500004
sg92
F0.56521750273437499
sg93
F0.61538481978500004
sg94
F0.61538481978500004
sg95
F0.5
sg96
F0.6974270558815201
sg97
F0.5
sg98
F0.63636348806528531
sg99
F0.5
sg100
F0.6672199638327756
sg101
F0.64285729624883192
sg102
F0.65517261122951531
sg103
F0.64285729624883192
sg104
F0.61538481978500004
sg105
F0.58333337600000001
sg106
F0.54545450000000006
sg107
F0.61538481978500004
sg108
F0.5
sg109
F0.71469218860749173
sg110
F0.56521750273437499
sg111
F0.64912263806413795
sg112
F0.61538481978500004
sg113
F0.63636348806528531
sg114
F0.5
sg115
F0.63636348806528531
sg116
F0.65517261122951531
sg117
F0.5
sg118
F0.74715480713689952
sg119
F0.59999990463256836
sg120
F0.5
sg121
F0.59999990463256836
sg122
F0.5
sg123
F0.56521750273437488
sg124
F0.63636348806528531
sg125
F0.66721996383277571
sg126
F0.7336876158221397
sg127
F0.6672199638327756
sg128
F0.60784321061368973
sg129
F0.66101670517122779
sg130
F0.52380953124999996
sg131
F0.59999990463256836
sg132
F0.6672199638327756
sg133
F0.66101670517122779
sg134
F0.68798633045266433
sg135
F0.64912263806413795
sg136
F0.54545450000000006
sg137
F0.52380953124999996
sg138
F0.62962978294611571
sg139
F0.74391713675076754
sg140
F0.73009348113420369
sg141
F0.52380953124999996
sg142
F0.61538481978500004
sg143
F0.73009348113420369
sg144
F0.5
sg145
F0.59999990463256836
sg146
F0.5
sg147
F0.65517261122951531
sg148
F0.59999990463256836
sg149
F0.5
sg150
F0.56521750273437499
sg151
F0.64285729624883192
sg152
F0.74059575404895817
sg153
F0.62264133912487596
sg154
F0.66101670517122779
sg155
F0.5
sg156
F0.52380953124999996
sg157
F0.66101670517122779
sg158
F0.5
sg159
F0.5
sg160
F0.68798633045266433
sg161
F0.6672199638327756
sg162
F0.5
sg163
F0.5833333759999999
sg164
F0.63636348806528531
sg165
F0.60784321061368973
sg166
F0.70631318443240287
sg167
F0.5
sg168
F0.56521750273437499
sg169
F0.74715480713689908
sg170
F0.64912263806413795
sg171
F0.63636348806528531
sg172
F0.65517261122951531
sg173
F0.64285729624883192
sg174
F0.73009348113420369
sg175
F0.5
sg176
F0.54545450000000006
sg177
F0.64285729624883192
sg178
F0.58333337600000001
sg179
F0.72260667497575293
sg180
F0.60784321061368973
sg181
F0.5
sg182
F0.6672199638327756
sg183
F0.65517261122951531
sg184
F0.5833333759999999
sg185
F0.56521750273437499
sg186
F0.71469218860749173
sg187
F0.59999990463256836
sg188
F0.64912263806413795
sg189
F0.73009348113420369
sg190
F0.71870514507063699
sg191
F0.56521750273437499
sg192
F0.74059575404895817
sg193
L5826L
sg194
F0.5
sg195
F0.64912263806413795
sg196
F0.54545450000000006
sg197
F0.64912263806413795
sg198
F0.6672199638327756
sg199
F0.5
sg200
F0.68798633045266433
sg201
F0.56521750273437499
sg202
F0.6672199638327756
sg203
F0.5
sg204
F0.64912263806413795
sg205
F0.7336876158221397
sg206
F0.60784321061368973
sg207
F0.74059575404895817
sg208
F0.56521750273437499
sg209
F0.65517261122951531
sg210
F0.68798633045266433
sg211
F0.68798633045266433
sg212
F0.65517261122951531
sg213
F0.6672199638327756
sg214
F0.7336876158221397
sg215
F0.5
sg216
F0.60784321061368973
sg217
F0.62264133912487596
sg218
F0.6672199638327756
sg219
F0.6672199638327756
sg220
F0.73718719154913004
sg221
F0.59999990463256836
sg222
F0.7336876158221397
sg223
F0.5
sg224
F0.65517261122951531
sg225
F0.5
sg226
F0.6672199638327756
sg227
F0.62962978294611571
sg228
F0.62264133912487596
sg229
F0.5
sg230
F0.72260667497575293
sg231
F0.6672199638327756
sg232
F0.72640123629639131
sg233
F0.65517261122951531
sg234
F0.71469218860749173
sg235
F0.54545450000000006
sg236
F0.5
sg237
F0.65517261122951509
sg238
F0.5
sg239
F0.58333337600000001
sg240
F0.64912263806413795
sg241
F0.60784321061368951
sg242
F0.72260667497575293
sg243
F0.68798633045266433
sg244
F0.64912263806413795
sg245
F0.6672199638327756
sg246
F0.64285729624883192
sg247
F0.58333337600000001
sg248
F0.71469218860749173
sg249
F0.7336876158221397
sg250
F0.65517261122951509
sg251
F0.60784321061368973
sg252
F0.54545450000000006
sg253
F0.62962978294611571
sg254
F0.63636348806528531
sg255
F0.58333337600000001
sg256
F0.52380953124999996
sg257
F0.74059575404895817
sg258
F0.62962978294611571
sg259
F0.52380953124999996
sg260
F0.64912263806413795
sg261
F0.5
sg262
F0.5
sg263
F0.71870514507063699
sg264
F0.6672199638327756
sg265
F0.72640123629639131
sg266
F0.5
sg267
F0.64285729624883192
sg268
F0.59999990463256836
sg269
F0.62962978294611571
sg270
F0.5
sg271
F0.73718719154913004
sg272
F0.73009348113420369
sg273
F0.5
sg274
F0.5
sg275
F0.73009348113420369
sg276
F0.68798633045266433
sg277
F0.58333337600000001
sg278
F0.70631318443240287
sg279
F0.5
sg280
F0.65517261122951531
sg281
F0.61538481978499993
sg282
F0.64285729624883192
sg283
F0.64285729624883192
sg284
F0.5
sg285
F0.62962978294611571
sg286
F0.5
sg287
F0.54545450000000006
sg288
F0.72640123629639131
sg289
F0.64285729624883192
sg290
F0.63636348806528531
sg291
F0.5
sg292
F0.59999990463256836
sg293
F0.62264133912487596
sg294
F0.6672199638327756
sg295
F0.58333337600000001
sg296
F0.6672199638327756
sg297
F0.56521750273437499
sg298
F0.62962978294611571
sg299
F0.74715480713689952
sg300
F0.5
sg301
F0.71870514507063699
sg302
F0.5
sg303
F0.64285729624883192
sg304
F0.59999990463256836
sg305
F0.58333337600000001
sg306
F0.74715480713689952
sg307
F0.5
sg308
F0.59999990463256836
sg309
F0.64285729624883192
sg310
F0.74715480713689952
sg311
F0.62962978294611571
sg312
F0.61538481978500004
sg313
F0.5
sg314
F0.63636348806528531
sg315
F0.72260667497575293
sg316
F0.64285729624883192
sg317
F0.54545450000000006
sg318
F0.6672199638327756
sg319
F0.62264133912487596
sg320
F0.6672199638327756
sg321
F0.58333337600000001
sg322
F0.62264133912487596
sg323
F0.56521750273437499
sg324
F0.59999990463256836
sg325
F0.5
sg326
F0.5
sg327
F0.71469218860749173
sg328
F0.60784321061368973
sg329
F0.65517261122951531
sg330
F0.5
sg331
F0.5
sg332
F0.5
sg333
F0.6672199638327756
sg334
F0.58333337600000001
sg335
F0.62264133912487596
sg336
F0.60784321061368973
sg337
F0.66101670517122779
sg338
F0.5
sg339
F0.72260667497575293
sg340
F0.6672199638327756
sg341
F0.5
sg342
F0.65517261122951531
sg343
F0.52380953124999996
sg344
F0.62962978294611571
sg345
F0.62264133912487596
sg346
F0.64912263806413795
sg347
F0.52380953124999996
sg348
F0.58333337600000001
sg349
F0.65517261122951531
sg350
F0.74391713675076754
sg351
F0.58333337600000001
sg352
F0.72640123629639131
sg353
F0.63636348806528531
sg354
F0.7336876158221397
sg355
F0.65517261122951531
sg356
F0.67793756617407053
sg357
F0.73009348113420369
sg358
F0.5
sg359
F0.64912263806413795
sg360
F0.6672199638327756
sg361
F0.5
sg362
F0.74059575404895817
sg363
F0.72640123629639131
sg364
F0.54545450000000006
sg365
F0.64285729624883192
sg366
F0.52380953124999996
sg367
F0.58333337600000001
sg368
F0.54545450000000006
sg369
F0.52380953124999996
sg370
F0.5
sg371
F0.63636348806528531
sg372
F0.72640123629639131
sg373
F0.6672199638327756
sg374
F0.65517261122951531
sg375
F0.5
sg376
F0.6672199638327756
sg377
F0.7336876158221397
sg378
F0.6974270558815201
sg379
F0.61538481978500004
sg380
F0.62962978294611571
sg381
F0.5
sg382
F0.65517261122951531
sg383
F0.62264133912487596
sg384
F0.72260667497575293
sg385
F0.5
sg386
F0.73718719154913004
sg387
F0.54545450000000006
sg388
F0.64285729624883181
sg389
F0.6672199638327756
sg390
F0.68798633045266433
sg391
F0.52380953124999996
sg392
F0.74059575404895817
sg393
F0.67793756617407053
sg394
F0.61538481978500004
sg395
F0.61538481978500004
sg396
F0.59999990463256836
sg397
F0.60784321061368973
sg398
F0.6672199638327756
sg399
F0.6672199638327756
sg400
F0.66721996383277571
sg401
F0.65517261122951531
sg402
F0.54545450000000006
sg403
F0.62264133912487596
sg404
F0.63636348806528531
sg405
F0.54545450000000006
sg406
F0.66101670517122779
sg407
F0.52380953124999996
sg408
F0.72640123629639131
sg409
F0.64912263806413795
sg410
F0.6672199638327756
sg411
F0.5
sg412
F0.74059575404895817
sg413
L1L
sg414
F0.58333337600000001
sg415
F0.60784321061368973
sg416
F0.72260667497575293
sg417
F0.52380953124999996
sg418
F0.62962978294611571
sg419
F0.58333337600000001
sg420
F0.54545450000000006
sg421
F0.6672199638327756
sg422
F0.67793756617407053
sg423
F0.71870514507063699
sg424
F0.64285729624883192
sg425
F0.6672199638327756
sg426
F0.5
sg427
F0.6672199638327756
sg428
F0.59999990463256836
sg429
F0.66101670517122779
sg430
F0.63636348806528531
sg431
F0.73009348113420369
sg432
F0.54545450000000006
sg433
F0.5
sg434
F0.61538481978500004
sg435
F0.7336876158221397
sg436
F0.6672199638327756
sg437
F0.71870514507063699
sg438
F0.58333337600000001
sg439
F0.6672199638327756
sg440
F0.66101670517122779
sg441
F0.62264133912487596
sg442
F0.63636348806528531
sg443
F0.52380953124999996
sg444
F0.6974270558815201
sg445
F0.74715480713689952
sg446
F0.74059575404895817
sg447
F0.73718719154913004
sg448
F0.62962978294611571
sg449
F0.5
sg450
F0.72640123629639131
sg451
F0.6974270558815201
sg452
F0.74391713675076754
sg453
F0.66101670517122779
sg454
F0.62264133912487596
sg455
F0.74059575404895817
sg456
F0.62264133912487596
sg457
F0.67793756617407053
sg458
F0.63636348806528531
sg459
F0.61538481978500004
sg460
F0.6672199638327756
sg461
F0.6974270558815201
sg462
F0.54545450000000006
sg463
F0.64285729624883192
sg464
F0.5
sg465
F0.6974270558815201
sg466
F0.64912263806413772
sg467
F0.5
sg468
F0.5
sg469
F0.52380953124999996
sg470
F0.64912263806413772
sg471
F0.71469218860749173
sg472
F0.5
sg473
F0.60784321061368973
sg474
F0.5
sg475
F0.64285729624883192
sg476
F0.64285729624883192
sg477
F0.74059575404895794
sg478
F0.61538481978500004
sg479
F0.64912263806413795
sg480
F0.59999990463256836
sg481
F0.5
sg482
F0.74715480713689952
sg483
F0.7264012362963912
sg484
F0.71469218860749173
sg485
F0.67793756617407053
sg486
F0.74391713675076754
sg487
F0.6672199638327756
sg488
F0.62264133912487596
sg489
F0.74391713675076754
sg490
F0.52380953124999996
sg491
F0.6672199638327756
sg492
F0.62264133912487596
sg493
F0.5
sg494
F0.66101670517122779
sg495
F0.61538481978500004
sg496
F0.60784321061368973
sg497
F0.73009348113420369
sg498
F0.62962978294611571
sg499
F0.66101670517122779
sg500
F0.52380953124999996
sg501
F0.6672199638327756
sg502
F0.60784321061368951
sg503
F0.64285729624883181
sg504
F0.61538481978500004
sg505
F0.5
sg506
F0.5
sg507
F0.52380953124999996
sg508
F0.61538481978500004
sg509
F0.62962978294611549
sg510
F0.65517261122951531
sg511
F0.66101670517122779
sg512
F0.70631318443240287
sg513
F0.58333337600000001
sg514
F0.58333337600000001
sg515
F0.5
sg516
F0.6672199638327756
sg517
F0.61538481978500004
sg518
F0.56521750273437499
sg519
F0.63636348806528531
sg520
F0.67793756617407053
sg521
F0.6974270558815201
sg522
F0.5
sg523
F0.54545450000000006
sg524
F0.54545450000000006
sg525
F0.59999990463256836
sg526
F0.67793756617407053
sg527
F0.5
sg528
F0.6672199638327756
sg529
F0.66101670517122779
sg530
F0.62264133912487596
sg531
F0.7336876158221397
sg532
F0.64285729624883192
sg533
F0.5
sg534
F0.70631318443240287
sg535
F0.66101670517122779
sg536
F0.70631318443240287
sg537
F0.56521750273437499
sg538
F0.64912263806413795
sg539
F0.56521750273437499
sg540
F0.73009348113420369
sg541
F0.6672199638327756
sg542
F0.66101670517122779
sg543
F0.61538481978499993
sg544
F0.71469218860749173
sg545
F0.60784321061368973
sg546
F0.62962978294611571
sg547
F0.70631318443240287
sg548
F0.56521750273437499
sg549
F0.6672199638327756
sg550
F0.58333337600000001
sg551
F0.6672199638327756
sg552
F0.59999990463256836
sg553
F0.68798633045266433
sg554
F0.60784321061368973
sg555
F0.5
sg556
F0.72640123629639131
sg557
F0.62264133912487596
sg558
F0.56521750273437488
sg559
F0.73718719154913004
sg560
F0.54545450000000006
sg561
F0.67793756617407053
sg562
F0.6672199638327756
sg563
F0.62264133912487596
sg564
F0.52380953124999996
sg565
F0.64912263806413795
sg566
F0.74059575404895817
sg567
F0.73718719154913004
sg568
F0.7336876158221397
sg569
F0.6672199638327756
sg570
F0.62962978294611571
sg571
F0.64912263806413795
sg572
F0.58333337600000001
sg573
F0.62264133912487596
sg574
F0.66101670517122779
sg575
F0.66721996383277571
sg576
F0.73718719154913004
sg577
F0.59999990463256836
sg578
F0.74391713675076754
sg579
F0.54545450000000006
sg580
F0.62264133912487596
sg581
F0.56521750273437499
sg582
F0.5
sg583
F0.5
sg584
F0.74715480713689952
sg585
F0.62962978294611571
sg586
F0.5
sg587
F0.64912263806413795
sg588
F0.60784321061368973
sg589
F0.6672199638327756
sg590
F0.5
sg591
F0.5
sg592
F0.66101670517122779
sg593
F0.72640123629639131
sg594
F0.72260667497575293
sg595
F0.74391713675076754
sg596
F0.6672199638327756
sg597
F0.72640123629639131
sg598
F0.5
sg599
F0.59999990463256836
sg600
F0.5
sg601
F0.5
sg602
F0.5
sg603
F0.63636348806528531
sg604
F0.6974270558815201
sg605
F0.6672199638327756
sg606
F0.65517261122951531
sg607
F0.74391713675076754
sg608
F0.64285729624883192
sg609
F0.64285729624883192
sg610
F0.70631318443240287
sg611
F0.67793756617407053
sg612
F0.71870514507063699
sg613
F0.6974270558815201
sg614
F0.5
sg615
F0.66101670517122757
sg616
F0.71870514507063699
sg617
F0.63636348806528531
sg618
F0.64912263806413795
sg619
F0.6672199638327756
sg620
F0.66101670517122779
sg621
F0.56521750273437499
sg622
F0.59999990463256836
sg623
F0.56521750273437499
sg624
F0.67793756617407053
sg625
F0.74715480713689952
sg626
F0.61538481978500004
sg627
F0.60784321061368973
sg628
F0.71870514507063699
sg629
F0.5
sg630
F0.74059575404895817
sg631
F0.5
sg632
F0.5
sg633
F0.70631318443240287
sg634
L1L
sg635
F0.73718719154913004
sg636
F0.5
sg637
F0.62962978294611571
sg638
F0.74715480713689952
sg639
F0.70631318443240287
sg640
F0.5
sg641
F0.56521750273437499
sg642
F0.7336876158221397
sg643
L0L
sg644
F0.70631318443240287
sg645
F0.54545450000000006
sg646
F0.66101670517122757
sg647
F0.6672199638327756
sg648
F0.5
sg649
F0.5
sg650
F0.5
sg651
F0.71469218860749173
sg652
F0.70631318443240287
sg653
F0.64912263806413795
sg654
F0.5
sg655
F0.5
sg656
F0.73718719154913004
sg657
F0.5
sg658
F0.72260667497575293
sg659
F0.73718719154913004
sg660
F0.60784321061368973
sg661
F0.73718719154913004
sg662
F0.61538481978500004
sg663
F0.67793756617407053
sg664
F0.59999990463256836
sg665
F0.73009348113420358
sg666
F0.71469218860749173
sg667
F0.68798633045266433
sg668
F0.62264133912487596
sg669
F0.74715480713689952
sg670
F0.62264133912487596
sg671
F0.5
sg672
F0.6672199638327756
sg673
F0.61538481978500004
sg674
F0.5
sg675
F0.5
sg676
F0.5
sg677
F0.5
sg678
F0.60784321061368973
sg679
I01
sg680
F0.56521750273437499
sa.